(dp1
V059d8c14b2256a2ba4e38ac511700203
p2
cnumpy.core.multiarray
_reconstruct
p3
(cnumpy
ndarray
p4
(I0
tS'b'
tRp5
(I1
(I3
tcnumpy
dtype
p6
(S'f4'
I0
I1
tRp7
(I3
S'<'
NNNI-1
I-1
I0
tbI00
S'\x00\x00 @\x08\x00>?\x08\x00>?'
tbsV66b7666912e1d469cd9817a1cade694c
p8
g3
(g4
(I0
tS'b'
tRp9
(I1
(I3
tg7
I00
S'\x00\x00 @\x04\x00\x07?\x04\x00\x07?'
tbsVca3cdb2e771df9989df5a9cb0296c44c
p10
g3
(g4
(I0
tS'b'
tRp11
(I1
(I3
tg7
I00
S'\x00\x00 @\x02\x803?\x02\x803?'
tbsVfd4c2d4738bc25a5c331dbc101f3323a
p12
g3
(g4
(I0
tS'b'
tRp13
(I1
(I3
tg7
I00
S'\x00\x00\x00@\x00\x00*?\x00\x00*?'
tbsV0d19f1c627df49eb223771c28548350e
p14
g3
(g4
(I0
tS'b'
tRp15
(I1
(I3
tg7
I00
S'\x00\x00\x00@\xfc\xff8?\xfc\xff8?'
tbsVc020f5c28fc03aed3c125714f1c3cf2a
p16
g3
(g4
(I0
tS'b'
tRp17
(I1
(I3
tg7
I00
S'\x00\x00\x80?\x00\x00\x0e?\x00\x00\x0e?'
tbsV64a5a866461a3b6006efb0075e04dffe
p18
g3
(g4
(I0
tS'b'
tRp19
(I1
(I3
tg7
I00
S'\x00\x00\x00@q=*?q=*?'
tbsV274297dd9a4f66148754944ae2b6731c
p20
g3
(g4
(I0
tS'b'
tRp21
(I1
(I3
tg7
I00
S'\x00\x00 @\x00\x004?\x00\x004?'
tbsVf3f6f40ccb01276d722d52701cab1754
p22
g3
(g4
(I0
tS'b'
tRp23
(I1
(I3
tg7
I00
S'\x00\x00\x80?\x00\x00L?\x00\x00L?'
tbsV16377fe7caf072d882f234dbbff9ef6c
p24
g3
(g4
(I0
tS'b'
tRp25
(I1
(I3
tg7
I00
S'\x00\x00\x00@\x00\x00 ?\x00\x00 ?'
tbsVf228862e9f9c6ad7993ded4e088c5050
p26
g3
(g4
(I0
tS'b'
tRp27
(I1
(I3
tg7
I00
S'\x00\x00\x00@\xf8\xff!?\xf8\xff!?'
tbsVf69c80f898c9dfd8d3595b7ca7b8c66c
p28
g3
(g4
(I0
tS'b'
tRp29
(I1
(I3
tg7
I00
S'\x00\x00\x00@\xf8\xff\t?\xf8\xff\t?'
tbsVaf2b9f7d489ffab8e3590658853cacf8
p30
g3
(g4
(I0
tS'b'
tRp31
(I1
(I3
tg7
I00
S'\x00d\xa6?\x00\x00\x0c?\x00\x00\x0c?'
tbsV7917af5df3fe5577f912c5168c6307e3
p32
g3
(g4
(I0
tS'b'
tRp33
(I1
(I3
tg7
I00
S'\x0033?\x00\x00X?\x00\x00X?'
tbsV63b5be42543c98ac5392f1bfbda085bf
p34
g3
(g4
(I0
tS'b'
tRp35
(I1
(I3
tg7
I00
S'\x00g\xe6?\x00\x00 ?\x00\x00 ?'
tbsV0ca943d821204ceb089510f836a367fd
p36
g3
(g4
(I0
tS'b'
tRp37
(I1
(I3
tg7
I00
S'\x00\x00\x00@\x08\x00\x16?\x08\x00\x16?'
tbsV59e4e8889ae68a75227b2bd02c1d1b96
p38
g3
(g4
(I0
tS'b'
tRp39
(I1
(I3
tg7
I00
S'\x00g\xe6?\x00\x003?\x00\x003?'
tbsVdb7c113445db32f9beaf5dc90e7218ad
p40
g3
(g4
(I0
tS'b'
tRp41
(I1
(I3
tg7
I00
S'\x00\x00\x00@\x00\x00%?\x00\x00%?'
tbsV20c73e37fc89e007ae5b242480830860
p42
g3
(g4
(I0
tS'b'
tRp43
(I1
(I3
tg7
I00
S'\x00\x00\xa0?\x04\x00\x1b?\x04\x00\x1b?'
tbsV321364cc2393dccb7ba8894ee9d2b269
p44
g3
(g4
(I0
tS'b'
tRp45
(I1
(I3
tg7
I00
S'\x00\x00 @\x02\x80\x1f?\x02\x80\x1f?'
tbsVf82560aeea0309873716efe3aa71ef0a
p46
g3
(g4
(I0
tS'b'
tRp47
(I1
(I3
tg7
I00
S'\x00\x00\x80?\x00\x004?\x00\x004?'
tbsVbb94bc5dd4656a2387bafb6098311175
p48
g3
(g4
(I0
tS'b'
tRp49
(I1
(I3
tg7
I00
S'\x00h\xe6?\x00\x00/?\x00\x00/?'
tbsVc2af7c1d6159ae152a79f32d88c33ab2
p50
g3
(g4
(I0
tS'b'
tRp51
(I1
(I3
tg7
I00
S'\x00\x00 @\xfc\xff\x10?\xfc\xff\x10?'
tbsV6cb2908fd789700db727dd96526bc342
p52
g3
(g4
(I0
tS'b'
tRp53
(I1
(I3
tg7
I00
S'\x00\x00\xa0?\xf8\xff\t?\xf8\xff\t?'
tbsV8a2de07f6e9dbb8c6e4bfad7e83b3f0a
p54
g3
(g4
(I0
tS'b'
tRp55
(I1
(I3
tg7
I00
S'\x00\x00 @\x04\x007?\x04\x007?'
tbsV008464bb8521d09a42985dd8add3d0d2
p56
g3
(g4
(I0
tS'b'
tRp57
(I1
(I3
tg7
I00
S'\x00\x00\x00@\xfc\xff8?\xfc\xff8?'
tbsV21d449f3ae00ea302e5aa15d7df65465
p58
g3
(g4
(I0
tS'b'
tRp59
(I1
(I3
tg7
I00
S'\x00\x00 @\x04\x00/?\x04\x00/?'
tbsV10ff16e329c64a6a290a7a4139a5f4ae
p60
g3
(g4
(I0
tS'b'
tRp61
(I1
(I3
tg7
I00
S'\x00\x00\x00@\x00\x00"?\x00\x00"?'
tbsVeef0e41b1a96cf8c55723fa6aa2f3dc6
p62
g3
(g4
(I0
tS'b'
tRp63
(I1
(I3
tg7
I00
S'\x00\x00\xa0?\x02\x80/?\x02\x80/?'
tbsV96042e205dd3dc055f084aaca245e550
p64
g3
(g4
(I0
tS'b'
tRp65
(I1
(I3
tg7
I00
S'\x00\x00\x00@\x00\x00\x0c?\x00\x00\x0c?'
tbsV9bf3ca649999bc6856ad9f01c64eb7e4
p66
g3
(g4
(I0
tS'b'
tRp67
(I1
(I3
tg7
I00
S'\x00\x00\x00@\x00\x00*?\x00\x00*?'
tbsV8298238a27be6111214a9bc711608181
p68
g3
(g4
(I0
tS'b'
tRp69
(I1
(I3
tg7
I00
S'\x00\x00\x00@\x00\x00 ?\x00\x00 ?'
tbsVbbf7a3e138f9353414f2d51f0c363561
p70
g3
(g4
(I0
tS'b'
tRp71
(I1
(I3
tg7
I00
S'\x00\x00\x80?\x00\x00H?\x00\x00H?'
tbsVbda661b08ad77afb79bd35664861cd62
p72
g3
(g4
(I0
tS'b'
tRp73
(I1
(I3
tg7
I00
S'\x00\x00 @\x00\x00 ?\x00\x00 ?'
tbsVaa594c8968f06fcf374e76bc9a375477
p74
g3
(g4
(I0
tS'b'
tRp75
(I1
(I3
tg7
I00
S'\x00\x00\x80?\x00\x00,?\x00\x00,?'
tbsVe00832e96709eb85f8e0e608ca02c2b5
p76
g3
(g4
(I0
tS'b'
tRp77
(I1
(I3
tg7
I00
S'\x00\x00 @\x00\x004?\x00\x004?'
tbsV817a99e1a60bcf4e37c904d73845ca50
p78
g3
(g4
(I0
tS'b'
tRp79
(I1
(I3
tg7
I00
S'\x00\x00 @\xf8\xff)?\xf8\xff)?'
tbsV1f49f0c1d7feedcae9024d251797407c
p80
g3
(g4
(I0
tS'b'
tRp81
(I1
(I3
tg7
I00
S'\x00\x00\x00@\x00\x00\n?\x00\x00\n?'
tbsVa0fc609febe3eef5a4713a22996cf8e5
p82
g3
(g4
(I0
tS'b'
tRp83
(I1
(I3
tg7
I00
S'\x00\x00 @\x00\x004?\x00\x004?'
tbsVe8be143b9f5e352f71043b24f79f5a17
p84
g3
(g4
(I0
tS'b'
tRp85
(I1
(I3
tg7
I00
S'\x00\x00\x00@\x02\x80+?\x02\x80+?'
tbsV03fb0d0fdb187ee1160f09386b28c3f2
p86
g3
(g4
(I0
tS'b'
tRp87
(I1
(I3
tg7
I00
S'\x00\x00\x00@\x00\x004?\x00\x004?'
tbsV4d621b0adb6b46b353056e1843621c5f
p88
g3
(g4
(I0
tS'b'
tRp89
(I1
(I3
tg7
I00
S'\x00\x00 @\xfc\xff$?\xfc\xff$?'
tbsVc46c3962c10e287f1c1e3af0d309a128
p90
g3
(g4
(I0
tS'b'
tRp91
(I1
(I3
tg7
I00
S'\x00\x00 @\x04\x00/?\x04\x00/?'
tbsV62099cb774faa70d28d2c5cb1e235270
p92
g3
(g4
(I0
tS'b'
tRp93
(I1
(I3
tg7
I00
S'\x00\x00\x00@\xfc\xff\x1c?\xfc\xff\x1c?'
tbsV20809d879e5a966cc537beb42735a67f
p94
g3
(g4
(I0
tS'b'
tRp95
(I1
(I3
tg7
I00
S'\x00\x00 @\x00\x004?\x00\x004?'
tbsV99579bbe92d0bb4d5cd98982305870af
p96
g3
(g4
(I0
tS'b'
tRp97
(I1
(I3
tg7
I00
S'\x00\x00\xa0?\x00\x00H?\x00\x00H?'
tbsV565cdee745ea4e6afc0f7daae81a7963
p98
g3
(g4
(I0
tS'b'
tRp99
(I1
(I3
tg7
I00
S'\x00g\xe6?\x01\x00/?\x01\x00/?'
tbsV399a263bdfbf26c6969d8af98774be8c
p100
g3
(g4
(I0
tS'b'
tRp101
(I1
(I3
tg7
I00
S'\x00\x00\x00@\x00\x80$?\x00\x80$?'
tbsV028996723faa7840bb57f57e28275e4c
p102
g3
(g4
(I0
tS'b'
tRp103
(I1
(I3
tg7
I00
S'\x00g\xe6?\x00\x00*?\x00\x00*?'
tbsVa2fe50d59500281851fce256e922b675
p104
g3
(g4
(I0
tS'b'
tRp105
(I1
(I3
tg7
I00
S'\x00\x00\x80?\x00\x004?\x00\x004?'
tbsV14248ec22193bed1e087755df5a28509
p106
g3
(g4
(I0
tS'b'
tRp107
(I1
(I3
tg7
I00
S'\x00\x88\xe6??5>??5>?'
tbsVfbe0c3d6e4a50ca1c1bd3101515d0ab4
p108
g3
(g4
(I0
tS'b'
tRp109
(I1
(I3
tg7
I00
S'\x00\x00\x00@\x00\x00*?\x00\x00*?'
tbsV28824d52b6425841bb263393c3211693
p110
g3
(g4
(I0
tS'b'
tRp111
(I1
(I3
tg7
I00
S'\x00\x00 @\x06\x80:?\x06\x80:?'
tbsVb7ef0e864365220b8c8bfb153012d09a
p112
g3
(g4
(I0
tS'b'
tRp113
(I1
(I3
tg7
I00
S'\x00\x00\xa0?\xfc\xff4?\xfc\xff4?'
tbsV1a91ca95390756518700877893ac195b
p114
g3
(g4
(I0
tS'b'
tRp115
(I1
(I3
tg7
I00
S'\x00\x00\x00@\xbct\x13?\xbct\x13?'
tbsV3bbab45d770ecd681be143f67cb4e5f3
p116
g3
(g4
(I0
tS'b'
tRp117
(I1
(I3
tg7
I00
S'\x00\x00\x00@\x00\x00\x16?\x00\x00\x16?'
tbsV15aa585fb2d3018b295df8619f2d1cf7
p118
g3
(g4
(I0
tS'b'
tRp119
(I1
(I3
tg7
I00
S'\x00\x00\x00@\x00\x00\x11?\x00\x00\x11?'
tbsVb3c2d92976acd67a13493cdff1ec33ce
p120
g3
(g4
(I0
tS'b'
tRp121
(I1
(I3
tg7
I00
S'\x00g\xe6?\x00\x00*?\x00\x00*?'
tbsVd7aa27d839b1ecb03dbf011af4bcb092
p122
g3
(g4
(I0
tS'b'
tRp123
(I1
(I3
tg7
I00
S'\x00\x00\x00@\xfc\xff8?\xfc\xff8?'
tbsVb8276dbece0182602d2ae0c825dfa1b4
p124
g3
(g4
(I0
tS'b'
tRp125
(I1
(I3
tg7
I00
S'\x00f\xe6?\x00\x004?\x00\x004?'
tbsVedbf53a8478049de1494b213fdf942e6
p126
g3
(g4
(I0
tS'b'
tRp127
(I1
(I3
tg7
I00
S'\x00\x00 @\x00\x004?\x00\x004?'
tbsV243038f7bb7787497c59bc17f04c6ed9
p128
g3
(g4
(I0
tS'b'
tRp129
(I1
(I3
tg7
I00
S'\x00\x00\x00@\x00\x00%?\x00\x00%?'
tbsV84876a50f52476bcc2a63678257ae8b4
p130
g3
(g4
(I0
tS'b'
tRp131
(I1
(I3
tg7
I00
S'\x00\x00\x00@\x08\x00.?\x08\x00.?'
tbsVbb4b43d0dc4d9d2b61150df6556f6490
p132
g3
(g4
(I0
tS'b'
tRp133
(I1
(I3
tg7
I00
S'\x00\x00\xc0?\x00\x00A?\x00\x00A?'
tbsV0c9d8314f9c69840e25febabb1229fa4
p134
g3
(g4
(I0
tS'b'
tRp135
(I1
(I3
tg7
I00
S'\x00h\xe6?\xbe\x9f\x1a?\xbe\x9f\x1a?'
tbsV8a17bbe3cc0079c6d7d7579359bcf565
p136
g3
(g4
(I0
tS'b'
tRp137
(I1
(I3
tg7
I00
S'\x00g\xe6?\xff\xff$?\xff\xff$?'
tbsVae61ec94b0b8de5439180f4776551e42
p138
g3
(g4
(I0
tS'b'
tRp139
(I1
(I3
tg7
I00
S'\x00\x00 @\x04\x00/?\x04\x00/?'
tbsV54df448f6c74df6bfa6b75c05393ace1
p140
g3
(g4
(I0
tS'b'
tRp141
(I1
(I3
tg7
I00
S'\x00\x00\x00@\x00\x80\x1f?\x00\x80\x1f?'
tbsVf9ce0c5ded59a58b9d7ca5200e6b1182
p142
g3
(g4
(I0
tS'b'
tRp143
(I1
(I3
tg7
I00
S'\x00\x00\xa0?\xfe\x7f\x1c?\xfe\x7f\x1c?'
tbsVced4f41abff9290b0638b0a25cd5a26d
p144
g3
(g4
(I0
tS'b'
tRp145
(I1
(I3
tg7
I00
S'\x00\x00\xc0?P\x8d7?P\x8d7?'
tbsV8918c484841c5d0a532fe146e9da61bd
p146
g3
(g4
(I0
tS'b'
tRp147
(I1
(I3
tg7
I00
S'\x00\x00\x00@\x00\x004?\x00\x004?'
tbsV264e5829ef58570c243bfd961098343f
p148
g3
(g4
(I0
tS'b'
tRp149
(I1
(I3
tg7
I00
S'\x00\x00 @\x04\x00\x1b?\x04\x00\x1b?'
tbsV5a42f0a0d1e060531c20d04ed23efc02
p150
g3
(g4
(I0
tS'b'
tRp151
(I1
(I3
tg7
I00
S'\x00\x00 @\x04\x00/?\x04\x00/?'
tbsVc3d37bdb061c189269f4223f8bebeae0
p152
g3
(g4
(I0
tS'b'
tRp153
(I1
(I3
tg7
I00
S'\x00\x00\xa0?\x00\x004?\x00\x004?'
tbsV3d521ee3776eefb65953f89c0e1a4f96
p154
g3
(g4
(I0
tS'b'
tRp155
(I1
(I3
tg7
I00
S'\x00\x00\x00@\xf8\xff)?\xf8\xff)?'
tbsVfe45462987bacc32dbc7126119999392
p156
g3
(g4
(I0
tS'b'
tRp157
(I1
(I3
tg7
I00
S'\x00\x00\xa0?\xfe\x7f ?\xfe\x7f ?'
tbsV89f003dbfbdbd18a5cdeb9b128cb075b
p158
g3
(g4
(I0
tS'b'
tRp159
(I1
(I3
tg7
I00
S'\x00\x00 @\x02\x80G?\x02\x80G?'
tbsV916ab7b22affc5651abfc9aae01bb355
p160
g3
(g4
(I0
tS'b'
tRp161
(I1
(I3
tg7
I00
S'\x00\x00\x00@\xf8\xff)?\xf8\xff)?'
tbsVc98675ecb5bdc7eb35c69d730da05df1
p162
g3
(g4
(I0
tS'b'
tRp163
(I1
(I3
tg7
I00
S'\x00\x00 @\x00\x00\x0c?\x00\x00\x0c?'
tbsV7dc59759253943ac070ab2557c219731
p164
g3
(g4
(I0
tS'b'
tRp165
(I1
(I3
tg7
I00
S'\x00\x00\x00@\x00\x00-?\x00\x00-?'
tbsVead64f9269f2200e1d439960a1e069b4
p166
g3
(g4
(I0
tS'b'
tRp167
(I1
(I3
tg7
I00
S'\x00h\xe6?\x00\x00 ?\x00\x00 ?'
tbsVf55b8ee990408001671d76c3595afacf
p168
g3
(g4
(I0
tS'b'
tRp169
(I1
(I3
tg7
I00
S'\x00\x00 @\x04\x00\x1b?\x04\x00\x1b?'
tbsV9437f7c26ffdaca5a9ae5302d9736c35
p170
g3
(g4
(I0
tS'b'
tRp171
(I1
(I3
tg7
I00
S'\x00\x00\xa0?\x00\x004?\x00\x004?'
tbsVac4c6d832509d4cee3c7ac93a9227075
p172
g3
(g4
(I0
tS'b'
tRp173
(I1
(I3
tg7
I00
S'\x00\x00\x00@\x00\x00 ?\x00\x00 ?'
tbsV448ce51772879fcd88f61c07b06347b2
p174
g3
(g4
(I0
tS'b'
tRp175
(I1
(I3
tg7
I00
S'\x00\x00 @\x00\x004?\x00\x004?'
tbsVd777a77cc7a2ec2f1eed68799cc9075c
p176
g3
(g4
(I0
tS'b'
tRp177
(I1
(I3
tg7
I00
S'\x00\x00 @\x00\x00\x0c?\x00\x00\x0c?'
tbsVf5717f7cbc08d8bd942cd4c1128e3339
p178
g3
(g4
(I0
tS'b'
tRp179
(I1
(I3
tg7
I00
S'\x00\x00 @\x00\x00,?\x00\x00,?'
tbsVe9a27e2645e1fad9434ce765f678585f
p180
g3
(g4
(I0
tS'b'
tRp181
(I1
(I3
tg7
I00
S'\x00\x00\xa0?\xf8\xff9?\xf8\xff9?'
tbsV834dd009c49e7faaf8e4caba668a2d8f
p182
g3
(g4
(I0
tS'b'
tRp183
(I1
(I3
tg7
I00
S'\x00g\xe6?\x00\x00*?\x00\x00*?'
tbsV6af9fecd6807921fa9fe10f0391aa453
p184
g3
(g4
(I0
tS'b'
tRp185
(I1
(I3
tg7
I00
S'\x00f\xe6?\x00\x00\x1c?\x00\x00\x1c?'
tbsVbf3dbf9b2379ca92ceaafc1867de0422
p186
g3
(g4
(I0
tS'b'
tRp187
(I1
(I3
tg7
I00
S'\x80\x00\x00@\x00\x004?\x00\x004?'
tbsV2143d78ca33eb69f667edd80ddbff6de
p188
g3
(g4
(I0
tS'b'
tRp189
(I1
(I3
tg7
I00
S'\x00\x00\xa0?\x04\x00\x07?\x04\x00\x07?'
tbsV42bfcfb0e3965039947bd905b2fc3915
p190
g3
(g4
(I0
tS'b'
tRp191
(I1
(I3
tg7
I00
S'\x00\x00\xa0?\x00\x004?\x00\x004?'
tbsV7b4d476d9414c9339269efe47840d2da
p192
g3
(g4
(I0
tS'b'
tRp193
(I1
(I3
tg7
I00
S'\x00\x00\x80?\x00\x00\x13?\x00\x00\x13?'
tbsV4062f1ad138218af5a3dfa3186d2afe1
p194
g3
(g4
(I0
tS'b'
tRp195
(I1
(I3
tg7
I00
S'\x00\x00\xa0?\xf8\xff\t?\xf8\xff\t?'
tbsVaa477f5b9ce7ab1e886e474be5397727
p196
g3
(g4
(I0
tS'b'
tRp197
(I1
(I3
tg7
I00
S'\x00\x00\xa0?\x00\x004?\x00\x004?'
tbsVb022a1d30d62ef2c1f0902f1a047a845
p198
g3
(g4
(I0
tS'b'
tRp199
(I1
(I3
tg7
I00
S'\x00\x00\x00@\x00\x004?\x00\x004?'
tbsVc1673993c070080c1d65aca6799c66f8
p200
g3
(g4
(I0
tS'b'
tRp201
(I1
(I3
tg7
I00
S'\x00\x00 @\x02\x80\x1f?\x02\x80\x1f?'
tbsVdcf75f484b2d2712e5033ba61fd6e2a0
p202
g3
(g4
(I0
tS'b'
tRp203
(I1
(I3
tg7
I00
S'\x00\x00 @\xfc\xff\x10?\xfc\xff\x10?'
tbsV9f73628a5e06cfc6723f3ee2ae4b96c4
p204
g3
(g4
(I0
tS'b'
tRp205
(I1
(I3
tg7
I00
S'\x00h\xa6?\x00\x806?\x00\x806?'
tbsV90d6324d7006a3d142ee1884279dcf9b
p206
g3
(g4
(I0
tS'b'
tRp207
(I1
(I3
tg7
I00
S'\x00\x00 @\x00\x004?\x00\x004?'
tbsV57f5dc474b6a35d02542299dd09e68d6
p208
g3
(g4
(I0
tS'b'
tRp209
(I1
(I3
tg7
I00
S'\x00g\xe6?\x00\x00#?\x00\x00#?'
tbsV862d1d80391d146b2cd02478a798b365
p210
g3
(g4
(I0
tS'b'
tRp211
(I1
(I3
tg7
I00
S'\x00\x00 @\x00\x004?\x00\x004?'
tbsV5e0c8cba8eab51076ac0014049d770c1
p212
g3
(g4
(I0
tS'b'
tRp213
(I1
(I3
tg7
I00
S'\x00\x00\x00@\x00\x00*?\x00\x00*?'
tbsVa8f2ebe1d66b24741cac1eb465a2ff72
p214
g3
(g4
(I0
tS'b'
tRp215
(I1
(I3
tg7
I00
S'\x00\x00 @\x04\x00\x07?\x04\x00\x07?'
tbsV2ea91bfe303ec03f9b0b3603333a3de6
p216
g3
(g4
(I0
tS'b'
tRp217
(I1
(I3
tg7
I00
S'\x00\x00\x00@\xfa\x7f)?\xfa\x7f)?'
tbsV6ae1b284936accdc4101c6daaaa2e0d3
p218
g3
(g4
(I0
tS'b'
tRp219
(I1
(I3
tg7
I00
S'\x00\x00\x00@\x00\x00\x0e?\x00\x00\x0e?'
tbsVb1184cbc6dfa46734807211f95f3c998
p220
g3
(g4
(I0
tS'b'
tRp221
(I1
(I3
tg7
I00
S'\x00\x00 @\x08\x00\x16?\x08\x00\x16?'
tbsV08acb3440eb23385724d006403feb585
p222
g3
(g4
(I0
tS'b'
tRp223
(I1
(I3
tg7
I00
S'\x00\x00\x80?\x00\x00H?\x00\x00H?'
tbsV10a9c32039971eb12f3aecf76ac20f8c
p224
g3
(g4
(I0
tS'b'
tRp225
(I1
(I3
tg7
I00
S'\x00\x00 @\xfc\xff8?\xfc\xff8?'
tbsV0eafe9b9182b80c6d67015a2062f5143
p226
g3
(g4
(I0
tS'b'
tRp227
(I1
(I3
tg7
I00
S'\x00\x00\x00@\xff\xff\x04?\xff\xff\x04?'
tbsVa19a122fe9a790576b57c6bd5cf9ff5c
p228
g3
(g4
(I0
tS'b'
tRp229
(I1
(I3
tg7
I00
S'\x00\x00\x00@\x04\x00#?\x04\x00#?'
tbsV0d2fcf787026fece4e57be167d079383
p230
g3
(g4
(I0
tS'b'
tRp231
(I1
(I3
tg7
I00
S'\x00\x00 @\x04\x00\x1b?\x04\x00\x1b?'
tbsVd43c9dd1be361b9302c9343af09cc23e
p232
g3
(g4
(I0
tS'b'
tRp233
(I1
(I3
tg7
I00
S'\x00\x00 @\xf8\xff9?\xf8\xff9?'
tbsV89960d9a801625bf76e9e1047acc5cd5
p234
g3
(g4
(I0
tS'b'
tRp235
(I1
(I3
tg7
I00
S'\x00\x00\x00@\x00\x00,?\x00\x00,?'
tbsVd3aad463ed33cb02334f0c3029db4587
p236
g3
(g4
(I0
tS'b'
tRp237
(I1
(I3
tg7
I00
S'\x00\x00\xa0?\x00\x004?\x00\x004?'
tbsV45f4141cfe3f110f9db4e1e113d15684
p238
g3
(g4
(I0
tS'b'
tRp239
(I1
(I3
tg7
I00
S'\x00\x00\x00@\xfc\xff\x10?\xfc\xff\x10?'
tbsV3170d41d2bc132db30399fca6bc6f376
p240
g3
(g4
(I0
tS'b'
tRp241
(I1
(I3
tg7
I00
S'\x00\x00\x00@\xf8\xff)?\xf8\xff)?'
tbsVc51d53068736c39d56b99074d2e29e12
p242
g3
(g4
(I0
tS'b'
tRp243
(I1
(I3
tg7
I00
S'\x00\x00 @\x04\x00+?\x04\x00+?'
tbsV006b96310a37b36cccb2ab48d10b49a3
p244
g3
(g4
(I0
tS'b'
tRp245
(I1
(I3
tg7
I00
S'\x00\x00\x00@q=*?q=*?'
tbsVb53d997901eb880c41fbfbc82847204c
p246
g3
(g4
(I0
tS'b'
tRp247
(I1
(I3
tg7
I00
S'\x00\x00\x00@\x00\x009?\x00\x009?'
tbsV6ddb331865608b8dfb8cac6d873eaf62
p248
g3
(g4
(I0
tS'b'
tRp249
(I1
(I3
tg7
I00
S'\x00D\xe6?q=*?q=*?'
tbsV53ddfb7769619035ad7f8f58c72f697c
p250
g3
(g4
(I0
tS'b'
tRp251
(I1
(I3
tg7
I00
S'\x00\x00\xa0?\x08\x00\x16?\x08\x00\x16?'
tbsVb818f0244d2adb13520191eed99e4680
p252
g3
(g4
(I0
tS'b'
tRp253
(I1
(I3
tg7
I00
S'\x00\x00\x00@\x08\x00>?\x08\x00>?'
tbsV04e5d435fa01b0958e3274be73312cac
p254
g3
(g4
(I0
tS'b'
tRp255
(I1
(I3
tg7
I00
S'\x00\x00 @\x00\x00 ?\x00\x00 ?'
tbsV08528b8817429d12b7ce2bf444d264f9
p256
g3
(g4
(I0
tS'b'
tRp257
(I1
(I3
tg7
I00
S'\x00\x00\xa0?\xfc\xffD?\xfc\xffD?'
tbsV73280f6a624b3bf7a766c70b31dfc56b
p258
g3
(g4
(I0
tS'b'
tRp259
(I1
(I3
tg7
I00
S'\x00\x00\x00@\x00\x004?\x00\x004?'
tbsVe8eb842ee04bbad407f85fe671f24d4f
p260
g3
(g4
(I0
tS'b'
tRp261
(I1
(I3
tg7
I00
S'\x00\x00\x00@\x00\x80\x17?\x00\x80\x17?'
tbsVaa528ce110f888679a4027513aeb442b
p262
g3
(g4
(I0
tS'b'
tRp263
(I1
(I3
tg7
I00
S'\x00\x00\xa0?\x00\x004?\x00\x004?'
tbsVde635c85f320131ee743733bb04e65b9
p264
g3
(g4
(I0
tS'b'
tRp265
(I1
(I3
tg7
I00
S'\x00\x00\x00@\x00\x00/?\x00\x00/?'
tbsV435cd5883a2014f295a8081ea098674b
p266
g3
(g4
(I0
tS'b'
tRp267
(I1
(I3
tg7
I00
S'\x00\x00\x80?\xfc\xff\x18?\xfc\xff\x18?'
tbsV2950df9632577cb4b3af2dbfe2086b11
p268
g3
(g4
(I0
tS'b'
tRp269
(I1
(I3
tg7
I00
S"\x00\x00\x00@\x9e\xef'?\x9e\xef'?"
tbsVaa59b7a4aa4dfb2489feea527eda3e4d
p270
g3
(g4
(I0
tS'b'
tRp271
(I1
(I3
tg7
I00
S'\x00\x00 ?\x04\x00\x1f?\x04\x00\x1f?'
tbsVebd601d40a18634b100c92e7db39f585
p272
g3
(g4
(I0
tS'b'
tRp273
(I1
(I3
tg7
I00
S'\x00\x00\x00@F\xb63?F\xb63?'
tbsV1ec082e8e2fa6eb6366b72a13e47b50f
p274
g3
(g4
(I0
tS'b'
tRp275
(I1
(I3
tg7
I00
S'\x00\x00\x00@\x06\x80"?\x06\x80"?'
tbsV01f1140c8e951e2a921b61c9a7e782c2
p276
g3
(g4
(I0
tS'b'
tRp277
(I1
(I3
tg7
I00
S'\x00\x00\xa0?\x00\x004?\x00\x004?'
tbsV934f01786c3bdf8eeaf7d8411a3a8f82
p278
g3
(g4
(I0
tS'b'
tRp279
(I1
(I3
tg7
I00
S'\x00\x00\x00@\x19\x04\x16?\x19\x04\x16?'
tbsV88523579f4e325351665753e903cfdf5
p280
g3
(g4
(I0
tS'b'
tRp281
(I1
(I3
tg7
I00
S'\x00\x00\x00@\xe9&\x11?\xe9&\x11?'
tbsV90409f7fcfec3581033559f8340e48a9
p282
g3
(g4
(I0
tS'b'
tRp283
(I1
(I3
tg7
I00
S'\x00\x00\x00@\x00\x004?\x00\x004?'
tbsV4131820511c86a5e6b1e7721ab687049
p284
g3
(g4
(I0
tS'b'
tRp285
(I1
(I3
tg7
I00
S'\x00\x00\x00@\x04\x00/?\x04\x00/?'
tbsVd73fda3be1180e4465df6fbef8a0648d
p286
g3
(g4
(I0
tS'b'
tRp287
(I1
(I3
tg7
I00
S'\x00\x00\x00@\x19\x04\x16?\x19\x04\x16?'
tbsVac9c16f3f287f0e0b321fb518ac71c75
p288
g3
(g4
(I0
tS'b'
tRp289
(I1
(I3
tg7
I00
S'\x00\x00 @\xf8\xff)?\xf8\xff)?'
tbsVa87740afc072074e6c5a2ab787235dde
p290
g3
(g4
(I0
tS'b'
tRp291
(I1
(I3
tg7
I00
S'\x00\x00\x00@\x9e\xef\x07?\x9e\xef\x07?'
tbsVe537c91cdfa97d20a39df7ef04a52570
p292
g3
(g4
(I0
tS'b'
tRp293
(I1
(I3
tg7
I00
S'\x00\x00 @\xfe\x7f<?\xfe\x7f<?'
tbsV4b8e47f2a5edda13b971da27317bfc6f
p294
g3
(g4
(I0
tS'b'
tRp295
(I1
(I3
tg7
I00
S'\x00\x00\xa0?\x02\x80/?\x02\x80/?'
tbsV37030ab5889febdae6725740aa627f95
p296
g3
(g4
(I0
tS'b'
tRp297
(I1
(I3
tg7
I00
S'\x00\x00\xa0?\x00\x004?\x00\x004?'
tbsV96544665531e7f59bc2730e3c5f42e65
p298
g3
(g4
(I0
tS'b'
tRp299
(I1
(I3
tg7
I00
S'\x00\x00 @\x02\x807?\x02\x807?'
tbsV3c73f5597780b7312b380373fb897f40
p300
g3
(g4
(I0
tS'b'
tRp301
(I1
(I3
tg7
I00
S'\x00\x00 @\x08\x00\x06?\x08\x00\x06?'
tbsVc6269c87a7571330961e5c4a9f692c10
p302
g3
(g4
(I0
tS'b'
tRp303
(I1
(I3
tg7
I00
S'\x00\x00\x00@\x04\x00/?\x04\x00/?'
tbsVcb94c3f894fc93c1ec0eb436c8564ed3
p304
g3
(g4
(I0
tS'b'
tRp305
(I1
(I3
tg7
I00
S'\x00\x00 @\x04\x00\x1b?\x04\x00\x1b?'
tbsV8a1fa06a0099522730dd3c12c9b9cc78
p306
g3
(g4
(I0
tS'b'
tRp307
(I1
(I3
tg7
I00
S'\x00\x00\x00@\x00\x004?\x00\x004?'
tbsV7bfba4540956c0b2c5b78b3623a4855d
p308
g3
(g4
(I0
tS'b'
tRp309
(I1
(I3
tg7
I00
S'\x00\x00 ?\x00\x007?\x00\x007?'
tbsVf6bf2c352e3c5b13ae48f077570f3d15
p310
g3
(g4
(I0
tS'b'
tRp311
(I1
(I3
tg7
I00
S'\x00\x00\x00@\xfc\xff$?\xfc\xff$?'
tbsV186d95f7c17fd666726c10251072d44b
p312
g3
(g4
(I0
tS'b'
tRp313
(I1
(I3
tg7
I00
S'\x00\x00\x00@\x06\x80\x1a?\x06\x80\x1a?'
tbsV8589428b683d33b99557d7d3b43a518c
p314
g3
(g4
(I0
tS'b'
tRp315
(I1
(I3
tg7
I00
S'\x00\x00 @\x04\x00/?\x04\x00/?'
tbsVfd0c2dfe0b0c58330675c3191cef0d5b
p316
g3
(g4
(I0
tS'b'
tRp317
(I1
(I3
tg7
I00
S'\x00\x00\x00@\x00\x00\x11?\x00\x00\x11?'
tbsV0d06d764d3c07572074d468b4cff954f
p318
g3
(g4
(I0
tS'b'
tRp319
(I1
(I3
tg7
I00
S'\x0043?\x00\x00T?\x00\x00T?'
tbsVe7cb27a5362a7098e1437bfb1224d2dc
p320
g3
(g4
(I0
tS'b'
tRp321
(I1
(I3
tg7
I00
S'\x00\x00\x00@\x08\x00\x16?\x08\x00\x16?'
tbsV98bde8f061ae92dd23b0708fdf41381e
p322
g3
(g4
(I0
tS'b'
tRp323
(I1
(I3
tg7
I00
S"\x00\x00\x80?\x00\x00'?\x00\x00'?"
tbsVb82efe72526c59a96257208d95e54baf
p324
g3
(g4
(I0
tS'b'
tRp325
(I1
(I3
tg7
I00
S'\x00\x00\xc0?\x00\x00>?\x00\x00>?'
tbsV3cdd66bf14f0cff5cb46e95d5867de0d
p326
g3
(g4
(I0
tS'b'
tRp327
(I1
(I3
tg7
I00
S'\x00\x00 @\x00\x00 ?\x00\x00 ?'
tbsV27e9f8b51aeee67918221f2df98e9cbc
p328
g3
(g4
(I0
tS'b'
tRp329
(I1
(I3
tg7
I00
S'\x00\x00\x00@\x04\x00/?\x04\x00/?'
tbsV16a4184e565f589622a70e82957ab54e
p330
g3
(g4
(I0
tS'b'
tRp331
(I1
(I3
tg7
I00
S'\x00\x00\x00@\x00\x00H?\x00\x00H?'
tbsVbbed0d350caad0e19e5b0fc858097ce4
p332
g3
(g4
(I0
tS'b'
tRp333
(I1
(I3
tg7
I00
S'\x00\x00\x00@\xfc\xffL?\xfc\xffL?'
tbsVc5f73cf44d785e5ac2e7f0a8897f683c
p334
g3
(g4
(I0
tS'b'
tRp335
(I1
(I3
tg7
I00
S'\x00f\xe6?\x00\x00\x16?\x00\x00\x16?'
tbsV415ea74bca59eb0ecd5ebb9c2c545f9d
p336
g3
(g4
(I0
tS'b'
tRp337
(I1
(I3
tg7
I00
S'\x00\x00\x00@\x00\x00\x15?\x00\x00\x15?'
tbsV5968ac45330d7f24b041a73925818269
p338
g3
(g4
(I0
tS'b'
tRp339
(I1
(I3
tg7
I00
S'\x00\x00\xa0?\x00\x004?\x00\x004?'
tbsVd987c00ec5463a0a696991b72d934512
p340
g3
(g4
(I0
tS'b'
tRp341
(I1
(I3
tg7
I00
S'\x00\x00\xa0?\x00\x004?\x00\x004?'
tbsV34c0760406297a3c8fd5077fb7cd95b0
p342
g3
(g4
(I0
tS'b'
tRp343
(I1
(I3
tg7
I00
S'\x00\x00 @\xfa\x7f%?\xfa\x7f%?'
tbsV6ee742b62985570a1f3a142eb7e49188
p344
g3
(g4
(I0
tS'b'
tRp345
(I1
(I3
tg7
I00
S'\x00\x00\xc0?\x00\x00!?\x00\x00!?'
tbsVae42429e25ce48034baa3dd527c7810a
p346
g3
(g4
(I0
tS'b'
tRp347
(I1
(I3
tg7
I00
S'\x00\x00\x00@\x00\x00#?\x00\x00#?'
tbsVf79681d8561b6443a5b95f78f3ea6411
p348
g3
(g4
(I0
tS'b'
tRp349
(I1
(I3
tg7
I00
S'\x00\x00 @\xfc\xff8?\xfc\xff8?'
tbsVc84e28d37dcc14a268b760bf16213cfa
p350
g3
(g4
(I0
tS'b'
tRp351
(I1
(I3
tg7
I00
S'\x00\x00\x00@\x00\x00/?\x00\x00/?'
tbsVa5bb766ab3b1bc5a8023a50a956595f2
p352
g3
(g4
(I0
tS'b'
tRp353
(I1
(I3
tg7
I00
S'\x00\x00 @\x00\x004?\x00\x004?'
tbsV2bf773632e786951d6d594939e6f4713
p354
g3
(g4
(I0
tS'b'
tRp355
(I1
(I3
tg7
I00
S'\x00\x00\x00@\x00\x00>?\x00\x00>?'
tbsV174a9fc87f54d6def3730954fbafc99d
p356
g3
(g4
(I0
tS'b'
tRp357
(I1
(I3
tg7
I00
S'\x00\x00\x00@\xfc\xff\x0c?\xfc\xff\x0c?'
tbsV24deb9f7adc838e4a4aaa2c905c548e6
p358
g3
(g4
(I0
tS'b'
tRp359
(I1
(I3
tg7
I00
S'\x00\x00\xa0?\xfc\xff(?\xfc\xff(?'
tbsV2b55d9c3f8e05951c87e90d2361aca6a
p360
g3
(g4
(I0
tS'b'
tRp361
(I1
(I3
tg7
I00
S'\x00\x00\x00@o\x12#?o\x12#?'
tbsV6c71617e2cee498fd3dd20956bb90a3b
p362
g3
(g4
(I0
tS'b'
tRp363
(I1
(I3
tg7
I00
S'\x00\x00 @\x08\x00>?\x08\x00>?'
tbsV592c2481f17d6a2cecfe7bbb6a27722c
p364
g3
(g4
(I0
tS'b'
tRp365
(I1
(I3
tg7
I00
S'\x00f\xe6?\x01\x00\x1b?\x01\x00\x1b?'
tbsV7797bfd33eb9f06da2b2f5d5c6501af4
p366
g3
(g4
(I0
tS'b'
tRp367
(I1
(I3
tg7
I00
S'\x00\x00 @\xfa\x7f9?\xfa\x7f9?'
tbsVee984e8fba88691aac4992fbb14f6e97
p368
g3
(g4
(I0
tS'b'
tRp369
(I1
(I3
tg7
I00
S'\x00\x00\x00@\xf8\xff)?\xf8\xff)?'
tbsV313efe2e7ecf18a8d484f8b42f30da3e
p370
g3
(g4
(I0
tS'b'
tRp371
(I1
(I3
tg7
I00
S'\x00\x00 @\xfa\x7f-?\xfa\x7f-?'
tbsV4b96e8e085d7ab16c8054654fe586553
p372
g3
(g4
(I0
tS'b'
tRp373
(I1
(I3
tg7
I00
S'\x00\x00\xa0?\xfa\x7f1?\xfa\x7f1?'
tbsV797d6bffdecfc88e990e820dc5771a0b
p374
g3
(g4
(I0
tS'b'
tRp375
(I1
(I3
tg7
I00
S'\x00\x00 @\xfa\x7f=?\xfa\x7f=?'
tbsV09fdf599084b816247ba38d95b3c9d80
p376
g3
(g4
(I0
tS'b'
tRp377
(I1
(I3
tg7
I00
S'\x00\x00 @\x08\x00\x16?\x08\x00\x16?'
tbsV1a41350d4bbd74b7e0e28239cefa84c2
p378
g3
(g4
(I0
tS'b'
tRp379
(I1
(I3
tg7
I00
S'\x00\x00\x00@\x00\x00 ?\x00\x00 ?'
tbsV479078cdf18cd6b677b79d2d9b075d81
p380
g3
(g4
(I0
tS'b'
tRp381
(I1
(I3
tg7
I00
S'\x00\x00\x00@\x04\x00C?\x04\x00C?'
tbsV0c60f4b87afcb3e2dfa65abbbf3ef2f9
p382
g3
(g4
(I0
tS'b'
tRp383
(I1
(I3
tg7
I00
S'\x00\x00\x00@\xfc\xff$?\xfc\xff$?'
tbsVed49b57854f5580658fb3510676e03dd
p384
g3
(g4
(I0
tS'b'
tRp385
(I1
(I3
tg7
I00
S'\x00\x00\x00@\xfc\xff\x08?\xfc\xff\x08?'
tbsVd08383958039c53ea3347ce1719be43e
p386
g3
(g4
(I0
tS'b'
tRp387
(I1
(I3
tg7
I00
S'\x00\x00\x00@\x00\x00C?\x00\x00C?'
tbsV31c090cf66ec7bf090801d14d63199b5
p388
g3
(g4
(I0
tS'b'
tRp389
(I1
(I3
tg7
I00
S'\x00\x00\x00@\xff\xff<?\xff\xff<?'
tbsVcc31a959bf4c2a6de3a67dfa378a261c
p390
g3
(g4
(I0
tS'b'
tRp391
(I1
(I3
tg7
I00
S'\x00\x00\xa0?\xfa\x7fY?\xfa\x7fY?'
tbsV463b67fefdde16ba3c4a4258de1f38e3
p392
g3
(g4
(I0
tS'b'
tRp393
(I1
(I3
tg7
I00
S'\x00\x00\x00@\xfc\xff\x10?\xfc\xff\x10?'
tbsV8e7638040431e1d91dffa4497f7078d9
p394
g3
(g4
(I0
tS'b'
tRp395
(I1
(I3
tg7
I00
S'\x00\x00\x00@\xc9v\x1e?\xc9v\x1e?'
tbsV7c8aa548b813dadf972c38e806320179
p396
g3
(g4
(I0
tS'b'
tRp397
(I1
(I3
tg7
I00
S'\x00\x00\x00@\x00\x00\x1b?\x00\x00\x1b?'
tbsVeefc3f380cc72d6fa830972151df01ad
p398
g3
(g4
(I0
tS'b'
tRp399
(I1
(I3
tg7
I00
S'\x00g\xe6?\x00\x00\x07?\x00\x00\x07?'
tbsV29a2105c99e7677c30c7fd0b2edb9fcd
p400
g3
(g4
(I0
tS'b'
tRp401
(I1
(I3
tg7
I00
S'\x00\x00\x00@\x00\x00\x1c?\x00\x00\x1c?'
tbsVa906cd7c6ad05c27216125485d2b7322
p402
g3
(g4
(I0
tS'b'
tRp403
(I1
(I3
tg7
I00
S'\x00g\xe6?\xff\xff8?\xff\xff8?'
tbsV1c42a5da837f4122d2c3b59ca9b5f0fb
p404
g3
(g4
(I0
tS'b'
tRp405
(I1
(I3
tg7
I00
S'\x00\x00\x00@\x08\x00.?\x08\x00.?'
tbsV8ed68f2dbf103a4bc0fd8708d8c1ac93
p406
g3
(g4
(I0
tS'b'
tRp407
(I1
(I3
tg7
I00
S'\x00\x00\x00@\x00\x004?\x00\x004?'
tbsVc0625c79ef5b37e293b5753d20b00c89
p408
g3
(g4
(I0
tS'b'
tRp409
(I1
(I3
tg7
I00
S'\x00\x00 @\xf8\xff)?\xf8\xff)?'
tbsV4e9c2cbf385db44b6f5e6618f47318d9
p410
g3
(g4
(I0
tS'b'
tRp411
(I1
(I3
tg7
I00
S'\x00\x00\x00@\x00\x004?\x00\x004?'
tbsVa32e7fdbc0db97e35aabd7c931a582ea
p412
g3
(g4
(I0
tS'b'
tRp413
(I1
(I3
tg7
I00
S'\x00\x00 @\x00\x004?\x00\x004?'
tbsV763ce10dfdd4662f15de3f5931d5534b
p414
g3
(g4
(I0
tS'b'
tRp415
(I1
(I3
tg7
I00
S"\x00\x00\x00@\x02\x80'?\x02\x80'?"
tbsV24031ba88c58797148475f6d4d5a085b
p416
g3
(g4
(I0
tS'b'
tRp417
(I1
(I3
tg7
I00
S'\x00f\xe6?\x01\x00/?\x01\x00/?'
tbsVdf8614fd49a196123c5b88584dd5dd65
p418
g3
(g4
(I0
tS'b'
tRp419
(I1
(I3
tg7
I00
S'\x00\x00 @\xfe\x7f\x1c?\xfe\x7f\x1c?'
tbsVbf1c730d11f5c1db7da7c39808451c4c
p420
g3
(g4
(I0
tS'b'
tRp421
(I1
(I3
tg7
I00
S'\x00\x00 @\x00\x00\x0c?\x00\x00\x0c?'
tbsV76e54792d7f5543f734e0906ea8f36c5
p422
g3
(g4
(I0
tS'b'
tRp423
(I1
(I3
tg7
I00
S'\x00\x00 @\x04\x00/?\x04\x00/?'
tbsV9842a3b9dfabab4ae8642d9953058ce4
p424
g3
(g4
(I0
tS'b'
tRp425
(I1
(I3
tg7
I00
S'\x00\x00\x00@\x00\x00\x1c?\x00\x00\x1c?'
tbsV2a48f50391e22040f28e258a74dcaf95
p426
g3
(g4
(I0
tS'b'
tRp427
(I1
(I3
tg7
I00
S'\x00\x00\x00@\x00\x006?\x00\x006?'
tbsVd654966fd2498de023552b830c07a659
p428
g3
(g4
(I0
tS'b'
tRp429
(I1
(I3
tg7
I00
S'\x00\x00 @\x06\x80:?\x06\x80:?'
tbsV72fd04cf3099b148d9ad361efb988866
p430
g3
(g4
(I0
tS'b'
tRp431
(I1
(I3
tg7
I00
S'\x00f\xe6?\x00\x004?\x00\x004?'
tbsVa5d7909f14d43f01f44cdcaabed27b84
p432
g3
(g4
(I0
tS'b'
tRp433
(I1
(I3
tg7
I00
S'\x00\x00\xa0?\xfa\x7f1?\xfa\x7f1?'
tbsV699e4f02a11a33930a14b13071d24eb0
p434
g3
(g4
(I0
tS'b'
tRp435
(I1
(I3
tg7
I00
S'\x00\x00 @\xf8\xff1?\xf8\xff1?'
tbsVd0c86e0c3b3fe3e1dd936b7553ecc29c
p436
g3
(g4
(I0
tS'b'
tRp437
(I1
(I3
tg7
I00
S'\x00\x00\x00@\x00\x008?\x00\x008?'
tbsV820cc2a44d87d9b3798782f7cc6f2a74
p438
g3
(g4
(I0
tS'b'
tRp439
(I1
(I3
tg7
I00
S'\x00\x00\x00@\x00\x00\x16?\x00\x00\x16?'
tbsV9109609020945cfc237125dc5f43f7b9
p440
g3
(g4
(I0
tS'b'
tRp441
(I1
(I3
tg7
I00
S'\x00\x00\x00@\x04\x00/?\x04\x00/?'
tbsVf27d7bf8df3cf0cd187682fc6860b755
p442
g3
(g4
(I0
tS'b'
tRp443
(I1
(I3
tg7
I00
S'\x00\x00\xc0?\x00\x00>?\x00\x00>?'
tbsV28649e08938386e3b8eaa4a84baf5982
p444
g3
(g4
(I0
tS'b'
tRp445
(I1
(I3
tg7
I00
S'\x00\x00\x00@\x08\x00\x16?\x08\x00\x16?'
tbsV080e6a00e69888fd620894f9fd0714b1
p446
g3
(g4
(I0
tS'b'
tRp447
(I1
(I3
tg7
I00
S'\x00\x00 @\x08\x00>?\x08\x00>?'
tbsV9569bb8d5fc4461461078b2e2ca29f1f
p448
g3
(g4
(I0
tS'b'
tRp449
(I1
(I3
tg7
I00
S'\x00\x00\x00@\xf8\xff)?\xf8\xff)?'
tbsV04a52f49cdbfb8b99789b9e93f1ad319
p450
g3
(g4
(I0
tS'b'
tRp451
(I1
(I3
tg7
I00
S'\x00\x00\x00@\x00\x00*?\x00\x00*?'
tbsV761aeadb65fb84c8d04978a75b2f684c
p452
g3
(g4
(I0
tS'b'
tRp453
(I1
(I3
tg7
I00
S'\x00\x00\xa0?\x08\x00>?\x08\x00>?'
tbsVe54b574a7e7c650edc224cbdede9e675
p454
g3
(g4
(I0
tS'b'
tRp455
(I1
(I3
tg7
I00
S'\x00\x00\xa0?\xfc\xff8?\xfc\xff8?'
tbsV92abfd85dd6afb639e9a8b60aaa08262
p456
g3
(g4
(I0
tS'b'
tRp457
(I1
(I3
tg7
I00
S'\x00\x00 @\x00\x004?\x00\x004?'
tbsV919b9f74bcee297abd6e217d185a025d
p458
g3
(g4
(I0
tS'b'
tRp459
(I1
(I3
tg7
I00
S'\x00\x00\x00@\xfc\xffL?\xfc\xffL?'
tbsV7cf1a65bb0f89323668034244a59e725
p460
g3
(g4
(I0
tS'b'
tRp461
(I1
(I3
tg7
I00
S'\x00\x00\xa0?\x00\x004?\x00\x004?'
tbsVce0609052ba7b533e2974728b0c76bfe
p462
g3
(g4
(I0
tS'b'
tRp463
(I1
(I3
tg7
I00
S'\x00\x00 @\x00\x004?\x00\x004?'
tbsV781cf9cc66e59f4586d9338630b95c1a
p464
g3
(g4
(I0
tS'b'
tRp465
(I1
(I3
tg7
I00
S'\x00\x00\x00@\x00\x004?\x00\x004?'
tbsVd809c513476775193aba29b31d0050c6
p466
g3
(g4
(I0
tS'b'
tRp467
(I1
(I3
tg7
I00
S'\x00\x00 @\x00\x00\x0c?\x00\x00\x0c?'
tbsV59af702c21840ec18073b6b56c95e7fe
p468
g3
(g4
(I0
tS'b'
tRp469
(I1
(I3
tg7
I00
S'\x00f\xe6?\x00\x004?\x00\x004?'
tbsV587d6230f2bad2525c47632fd792a895
p470
g3
(g4
(I0
tS'b'
tRp471
(I1
(I3
tg7
I00
S'\x00\x00\x00@\x00\x00\x0c?\x00\x00\x0c?'
tbsVb844a9510fc4021d9603cdf24cf0545b
p472
g3
(g4
(I0
tS'b'
tRp473
(I1
(I3
tg7
I00
S'\x00\x00 @\x00\x00 ?\x00\x00 ?'
tbsV55c01868f1d9c37fa3f174dc3c0d44e8
p474
g3
(g4
(I0
tS'b'
tRp475
(I1
(I3
tg7
I00
S'\x00\x00\x00@\xfe\x7f\x10?\xfe\x7f\x10?'
tbsV026470d51482c93efc18b9803159c960
p476
g3
(g4
(I0
tS'b'
tRp477
(I1
(I3
tg7
I00
S'\x00\x00\x00@\x00\x00H?\x00\x00H?'
tbsV72b080b50118e9ddb795890eb1f13684
p478
g3
(g4
(I0
tS'b'
tRp479
(I1
(I3
tg7
I00
S'\x00\x00\x00@\x00\x00\x0c?\x00\x00\x0c?'
tbsVf83c62177ee552891d22df33be12ab07
p480
g3
(g4
(I0
tS'b'
tRp481
(I1
(I3
tg7
I00
S'\x00f\xe6?\x00\x00;?\x00\x00;?'
tbsV184c61740244f4ce8fb985af9bb3d8e8
p482
g3
(g4
(I0
tS'b'
tRp483
(I1
(I3
tg7
I00
S'\x00\x00 @\xf8\xff)?\xf8\xff)?'
tbsV4521c94debf37a4dc9f3b70366a21640
p484
g3
(g4
(I0
tS'b'
tRp485
(I1
(I3
tg7
I00
S'\x00\x00\xa0?\xf8\xff)?\xf8\xff)?'
tbsVeff5b5a7c7245fa8f4661d7e88f8bc7f
p486
g3
(g4
(I0
tS'b'
tRp487
(I1
(I3
tg7
I00
S'\x00h\xa6?\x00\x00\x1f?\x00\x00\x1f?'
tbsV18f49fee33af677f0ce2ba655c5ec835
p488
g3
(g4
(I0
tS'b'
tRp489
(I1
(I3
tg7
I00
S'\x00\x00\xa0?\x04\x00C?\x04\x00C?'
tbsV36d0dff4c9eb340475888c2f93359e43
p490
g3
(g4
(I0
tS'b'
tRp491
(I1
(I3
tg7
I00
S'\x00\x00\x00@\x02\x807?\x02\x807?'
tbsVe414153d0e52f70cbe27c129911445a0
p492
g3
(g4
(I0
tS'b'
tRp493
(I1
(I3
tg7
I00
S'\x00\x00\x00@\x00\x00*?\x00\x00*?'
tbsV2fa939efbc3e1c2bc57ba5a98922ff3b
p494
g3
(g4
(I0
tS'b'
tRp495
(I1
(I3
tg7
I00
S'\x00\x00 ?\x00\x004?\x00\x004?'
tbsV25c369973827571098bdebf2a15c6ef2
p496
g3
(g4
(I0
tS'b'
tRp497
(I1
(I3
tg7
I00
S'\x00f\xe6?\x00\x00\x11?\x00\x00\x11?'
tbsVbaf842dd446ce9d7082efe16d22fb971
p498
g3
(g4
(I0
tS'b'
tRp499
(I1
(I3
tg7
I00
S'\x00\x00\x00@\x91\xed\x1c?\x91\xed\x1c?'
tbsV80e01dfd642c5aea680852498ddabd28
p500
g3
(g4
(I0
tS'b'
tRp501
(I1
(I3
tg7
I00
S'\x00f\xe6?\x00\x00\x17?\x00\x00\x17?'
tbsV880980cc7e88c83b0fea84f078b849e3
p502
g3
(g4
(I0
tS'b'
tRp503
(I1
(I3
tg7
I00
S'\x00\x00\x00@\x08\x00&?\x08\x00&?'
tbsVc7b20bdbf5f057ec1e9706ca43bf9a2f
p504
g3
(g4
(I0
tS'b'
tRp505
(I1
(I3
tg7
I00
S'\x00\x00\x00@\x00\x80-?\x00\x80-?'
tbsV149ff4b37a684a73869d2d88e3fd4d0e
p506
g3
(g4
(I0
tS'b'
tRp507
(I1
(I3
tg7
I00
S'\x00\x00 @\x04\x00/?\x04\x00/?'
tbsV6d01b46b619b9f6d8c78dbd3f6864372
p508
g3
(g4
(I0
tS'b'
tRp509
(I1
(I3
tg7
I00
S'\x00\x00\xc0?\x00\x00\x1c?\x00\x00\x1c?'
tbsVb887defbf88deb3c6fe4c22405d0a957
p510
g3
(g4
(I0
tS'b'
tRp511
(I1
(I3
tg7
I00
S'\x00\x00\x00@\xfc\xff8?\xfc\xff8?'
tbsV84a6c418d57bfc5214639012998356d4
p512
g3
(g4
(I0
tS'b'
tRp513
(I1
(I3
tg7
I00
S'\x00\x00\x00@\x08\x00*?\x08\x00*?'
tbsV3295cec04482210dc6f78c2b4a1d287b
p514
g3
(g4
(I0
tS'b'
tRp515
(I1
(I3
tg7
I00
S'\x00\x00 @\xf8\xffA?\xf8\xffA?'
tbsVf5713e8c98ef5378ea678fb8d9192e13
p516
g3
(g4
(I0
tS'b'
tRp517
(I1
(I3
tg7
I00
S'\x00\x00\x00@\x04\x00/?\x04\x00/?'
tbsVf5630f467acd9aa977b61a3e5780c2eb
p518
g3
(g4
(I0
tS'b'
tRp519
(I1
(I3
tg7
I00
S'\x00\x00\xc0?\x00\x00\x19?\x00\x00\x19?'
tbsV26142353f46d20c9fdded93f01e2bff4
p520
g3
(g4
(I0
tS'b'
tRp521
(I1
(I3
tg7
I00
S'\x00\x00\x00@\x00\x00H?\x00\x00H?'
tbsV5253d873ff82e3fa69e30e542d13a4ce
p522
g3
(g4
(I0
tS'b'
tRp523
(I1
(I3
tg7
I00
S'\x00\x00 @\xfa\x7f1?\xfa\x7f1?'
tbsV3043b5cc9733054f3ab5399c3c810406
p524
g3
(g4
(I0
tS'b'
tRp525
(I1
(I3
tg7
I00
S'\x00\x00\xa0?\x00\x004?\x00\x004?'
tbsV437e42695e7ad0a1cb834e1b3e780516
p526
g3
(g4
(I0
tS'b'
tRp527
(I1
(I3
tg7
I00
S'\x00\x00\x00@\x06\x802?\x06\x802?'
tbsVc6b722b00948587dd89a548f9639f447
p528
g3
(g4
(I0
tS'b'
tRp529
(I1
(I3
tg7
I00
S'\x00\x00\xa0?\x06\x80\x1a?\x06\x80\x1a?'
tbsV184fa4ae2b7ae010625d89f10186f1c5
p530
g3
(g4
(I0
tS'b'
tRp531
(I1
(I3
tg7
I00
S'\x00\x00\x00@\x00\x00:?\x00\x00:?'
tbsV33da5fb759223c316e8cec9d884d1584
p532
g3
(g4
(I0
tS'b'
tRp533
(I1
(I3
tg7
I00
S'\x00f\xe6?\x00\x00\x1b?\x00\x00\x1b?'
tbsV75aef267ad112a21c870b7e2893aaf8a
p534
g3
(g4
(I0
tS'b'
tRp535
(I1
(I3
tg7
I00
S'\x00g\xe6?\x00\x004?\x00\x004?'
tbsV34037914ceeec5605fc890159dd425c5
p536
g3
(g4
(I0
tS'b'
tRp537
(I1
(I3
tg7
I00
S'\x00\x00\x00@\x00\x004?\x00\x004?'
tbsVa858e3c7cf53e0996d76f57f2210c59c
p538
g3
(g4
(I0
tS'b'
tRp539
(I1
(I3
tg7
I00
S'\x00\x00\x00@\x00\x00>?\x00\x00>?'
tbsVd2285c33945ab3421d753b4fc59ac3ce
p540
g3
(g4
(I0
tS'b'
tRp541
(I1
(I3
tg7
I00
S'\x00\x00 @\x00\x004?\x00\x004?'
tbsV86515f063b3a30af09ba4d0322edf7b1
p542
g3
(g4
(I0
tS'b'
tRp543
(I1
(I3
tg7
I00
S'\x00\x00 @\xfc\xff,?\xfc\xff,?'
tbsV21c94e2776145f74697adf8810b05305
p544
g3
(g4
(I0
tS'b'
tRp545
(I1
(I3
tg7
I00
S'\x00\x00\xa0?\x00\x00\x0c?\x00\x00\x0c?'
tbsVfc545aa2f58509dc6d81ef02130b6906
p546
g3
(g4
(I0
tS'b'
tRp547
(I1
(I3
tg7
I00
S'\x00\x00\xa0?\xf8\xff)?\xf8\xff)?'
tbsV2619ed1e4eca954af4dcbc4436ef8467
p548
g3
(g4
(I0
tS'b'
tRp549
(I1
(I3
tg7
I00
S'\x00\x00\xa0?\xfc\xff$?\xfc\xff$?'
tbsVbc28807c545959c0e6e2708067201caa
p550
g3
(g4
(I0
tS'b'
tRp551
(I1
(I3
tg7
I00
S'\x00\x00\x00@\x00\x00*?\x00\x00*?'
tbsV0acbebb8d463b4b9ca88cf38431aac69
p552
g3
(g4
(I0
tS'b'
tRp553
(I1
(I3
tg7
I00
S'\x00f\xe6?\x00\x80\x0b?\x00\x80\x0b?'
tbsV185bc9d9fa3a58fea90778215c69d35b
p554
g3
(g4
(I0
tS'b'
tRp555
(I1
(I3
tg7
I00
S'\x00\x00\xc0?\x00\x00+?\x00\x00+?'
tbsV0a0c32c9e08cc2ea76a71649de56be6d
p556
g3
(g4
(I0
tS'b'
tRp557
(I1
(I3
tg7
I00
S'\x00\x00 @\xf8\xff)?\xf8\xff)?'
tbsV00edff4f51a893d80dae2d42a7f45ad1
p558
g3
(g4
(I0
tS'b'
tRp559
(I1
(I3
tg7
I00
S'\x00\x00 @\xfe\x7f,?\xfe\x7f,?'
tbsV61406252b7c29fbe372adfa953d95199
p560
g3
(g4
(I0
tS'b'
tRp561
(I1
(I3
tg7
I00
S'\x00g\xe6?\x01\x00\x07?\x01\x00\x07?'
tbsV5e21909f11ec07f75460fe16b6c0185a
p562
g3
(g4
(I0
tS'b'
tRp563
(I1
(I3
tg7
I00
S'\x00\x00 @\x04\x00\x1b?\x04\x00\x1b?'
tbsVce8b0816304e079bb99c6c25b4fa4b88
p564
g3
(g4
(I0
tS'b'
tRp565
(I1
(I3
tg7
I00
S'\x00\x00\xa0?\xfc\xff$?\xfc\xff$?'
tbsV7b76426f64cb4fbe3d4caa1dcbf47a2f
p566
g3
(g4
(I0
tS'b'
tRp567
(I1
(I3
tg7
I00
S'\x00\x00\xa0?\xfc\xff\x18?\xfc\xff\x18?'
tbsV5782e6873c666529c6a66421acb043dc
p568
g3
(g4
(I0
tS'b'
tRp569
(I1
(I3
tg7
I00
S'\x00h\xe6?\x00\x00/?\x00\x00/?'
tbsVfb52dd8152e53a4ca7da5403d6d0db13
p570
g3
(g4
(I0
tS'b'
tRp571
(I1
(I3
tg7
I00
S'\x00\x00\x00@\x00\x00%?\x00\x00%?'
tbsVc1ac4b0949e6e7557f82caf20761322d
p572
g3
(g4
(I0
tS'b'
tRp573
(I1
(I3
tg7
I00
S'\x00\x00 @\xf8\xff\x19?\xf8\xff\x19?'
tbsV2f77fd993fbd858dec3c085b9ff1a3a2
p574
g3
(g4
(I0
tS'b'
tRp575
(I1
(I3
tg7
I00
S'\x00\x00\x00@\x00\x00\x10?\x00\x00\x10?'
tbsV54056288ab97cebc4b0ea33c23f47ff6
p576
g3
(g4
(I0
tS'b'
tRp577
(I1
(I3
tg7
I00
S'\x00\x00 @\x04\x00\x1b?\x04\x00\x1b?'
tbsV7b87e500ff88c264aceb67cf57b32d6d
p578
g3
(g4
(I0
tS'b'
tRp579
(I1
(I3
tg7
I00
S'\x00\x00\x00@\xfc\xff<?\xfc\xff<?'
tbsVac68eb0a3db3de247c26909db4c10569
p580
g3
(g4
(I0
tS'b'
tRp581
(I1
(I3
tg7
I00
S'\x00\x00 @\x08\x00\x16?\x08\x00\x16?'
tbsVfa7bf17071e3234ab1f350341303b174
p582
g3
(g4
(I0
tS'b'
tRp583
(I1
(I3
tg7
I00
S'\x00\x00\x00@\x00\x004?\x00\x004?'
tbsVd032116d73789ff9c805f493357b4037
p584
g3
(g4
(I0
tS'b'
tRp585
(I1
(I3
tg7
I00
S'\x00\x00\xa0?\x00\x004?\x00\x004?'
tbsV6f43af3f636f37b9695b58378f9265cc
p586
g3
(g4
(I0
tS'b'
tRp587
(I1
(I3
tg7
I00
S'\x00d\xa6?\x00\x80!?\x00\x80!?'
tbsV54162a514a5e2beb54e4b7aff41f5dfe
p588
g3
(g4
(I0
tS'b'
tRp589
(I1
(I3
tg7
I00
S'\x00\x00 @\x00\x00 ?\x00\x00 ?'
tbsV186a0877503b047a77eb9b38083be9c1
p590
g3
(g4
(I0
tS'b'
tRp591
(I1
(I3
tg7
I00
S'\x00\x00\xa0?\x00\x004?\x00\x004?'
tbsVc979fbec565e769de7e66944ab5365a4
p592
g3
(g4
(I0
tS'b'
tRp593
(I1
(I3
tg7
I00
S'\x00\x00\xc0?\x00\x00*?\x00\x00*?'
tbsV7f137d30638a87d151ac7e84eeaf48e8
p594
g3
(g4
(I0
tS'b'
tRp595
(I1
(I3
tg7
I00
S'\x00\x00 @\x04\x00W?\x04\x00W?'
tbsV7a705cc36536145911a2ef9ace7d9930
p596
g3
(g4
(I0
tS'b'
tRp597
(I1
(I3
tg7
I00
S'\x00\x00\x00@\x00\x00 ?\x00\x00 ?'
tbsV3295f3f392d8e130155c8912b60161b5
p598
g3
(g4
(I0
tS'b'
tRp599
(I1
(I3
tg7
I00
S'\x00\x00 @\x00\x004?\x00\x004?'
tbsVd2a17180c72ce7e5e9cb3870ba7991d2
p600
g3
(g4
(I0
tS'b'
tRp601
(I1
(I3
tg7
I00
S'\x00f\xe6?\x00\x00/?\x00\x00/?'
tbsVfb7dfb6aae597d97c2da24179df0fe56
p602
g3
(g4
(I0
tS'b'
tRp603
(I1
(I3
tg7
I00
S'\x00\x00\x00@\x00\x004?\x00\x004?'
tbsVd89499632a4c7bde0923003497ffc5ea
p604
g3
(g4
(I0
tS'b'
tRp605
(I1
(I3
tg7
I00
S'\x00\x00 @\x04\x00/?\x04\x00/?'
tbsV4dcd34bd9b10f96453b63d4f55d1fd44
p606
g3
(g4
(I0
tS'b'
tRp607
(I1
(I3
tg7
I00
S'\x00\x00\x00@9\xb4\x08?9\xb4\x08?'
tbsVbdc2daa372a36f6f7c72abdc0b5639d1
p608
g3
(g4
(I0
tS'b'
tRp609
(I1
(I3
tg7
I00
S'\x00\x00\xa0?\x08\x00>?\x08\x00>?'
tbsVda8fea00d3e921e5d8ab4d90a7f6002f
p610
g3
(g4
(I0
tS'b'
tRp611
(I1
(I3
tg7
I00
S'\x00\x00\x00@\x00\x004?\x00\x004?'
tbsVc3e8db4f544e2d4ecb01c59551eb8ef0
p612
g3
(g4
(I0
tS'b'
tRp613
(I1
(I3
tg7
I00
S'\x00g\xe6?\x00\x00\x11?\x00\x00\x11?'
tbsVd03127f497cae40bcbd9996b4d1f5b90
p614
g3
(g4
(I0
tS'b'
tRp615
(I1
(I3
tg7
I00
S'\x00\x00\xc0?\x00\x00>?\x00\x00>?'
tbsVc590651cdf70258ffb1b6ee18da6a1b2
p616
g3
(g4
(I0
tS'b'
tRp617
(I1
(I3
tg7
I00
S'\x00\x00 @\x00\x004?\x00\x004?'
tbsV344ab37041900393b5498bdda6f43cac
p618
g3
(g4
(I0
tS'b'
tRp619
(I1
(I3
tg7
I00
S'\x00\x00\x00@\xf8\xff)?\xf8\xff)?'
tbsV666fad0dca00694381eeec67adc909ec
p620
g3
(g4
(I0
tS'b'
tRp621
(I1
(I3
tg7
I00
S'\x00\x00\x00@\x00\x001?\x00\x001?'
tbsV502e157e6a22166997d054e8920d921c
p622
g3
(g4
(I0
tS'b'
tRp623
(I1
(I3
tg7
I00
S'\x00\x00\x00@\x00\x00>?\x00\x00>?'
tbsV166a2a476b7b84c975fb65162acc0798
p624
g3
(g4
(I0
tS'b'
tRp625
(I1
(I3
tg7
I00
S'\x00\x00\x00@\x00\x004?\x00\x004?'
tbsVe163325ccf00afde107c80dfce2bce80
p626
g3
(g4
(I0
tS'b'
tRp627
(I1
(I3
tg7
I00
S'\x00\x00\x00@\x00\x00H?\x00\x00H?'
tbsVca4e1486c548679a9c682b6fa1a779d9
p628
g3
(g4
(I0
tS'b'
tRp629
(I1
(I3
tg7
I00
S'\x00\x00 @\x06\x80\x1e?\x06\x80\x1e?'
tbsVe6160ed0ff2eb214abd4df9a3c336c1d
p630
g3
(g4
(I0
tS'b'
tRp631
(I1
(I3
tg7
I00
S'\x00\x00 ?\x00\x00-?\x00\x00-?'
tbsV48713d11ced3c60a531e6e80258d6425
p632
g3
(g4
(I0
tS'b'
tRp633
(I1
(I3
tg7
I00
S'\x00\x00\x00@\x00\x00*?\x00\x00*?'
tbsV1f6333bc3599f683403d6f0884aefe00
p634
g3
(g4
(I0
tS'b'
tRp635
(I1
(I3
tg7
I00
S'\x00\x00 @\x00\x004?\x00\x004?'
tbsV56462ba8833fc842d16be7e311214404
p636
g3
(g4
(I0
tS'b'
tRp637
(I1
(I3
tg7
I00
S'\x00\x00\x00@\xfa\x7f!?\xfa\x7f!?'
tbsV9b4f0020e407fd7f980f4241fb6ac7ce
p638
g3
(g4
(I0
tS'b'
tRp639
(I1
(I3
tg7
I00
S'\x00\x00 ?\x06\x80>?\x06\x80>?'
tbsVa647d0ce63b01c9ee82fe1911ba7b1e5
p640
g3
(g4
(I0
tS'b'
tRp641
(I1
(I3
tg7
I00
S'\x00\x00\x00@\x08\x00>?\x08\x00>?'
tbsV8f4c97d428c70831d74660bca08961b9
p642
g3
(g4
(I0
tS'b'
tRp643
(I1
(I3
tg7
I00
S'\x00\x00\x00@\x00\x004?\x00\x004?'
tbsVd4a075768abe7fe43ad1caac92515256
p644
g3
(g4
(I0
tS'b'
tRp645
(I1
(I3
tg7
I00
S'\x00\x00 @\xfc\xff\x10?\xfc\xff\x10?'
tbsVfad57a1078ddbc685e517bd8f24aa8ac
p646
g3
(g4
(I0
tS'b'
tRp647
(I1
(I3
tg7
I00
S'\x00\x00\x00@\x00\x00\x0c?\x00\x00\x0c?'
tbsVaf9a6a57d23dd1889f8d92e5b3a2ddf3
p648
g3
(g4
(I0
tS'b'
tRp649
(I1
(I3
tg7
I00
S'\x00\x00\x00@\x00\x004?\x00\x004?'
tbsV4209cb1fbce28cd68da900eb9bef26b3
p650
g3
(g4
(I0
tS'b'
tRp651
(I1
(I3
tg7
I00
S'\x00\x00 @\xfc\xff8?\xfc\xff8?'
tbsV9e680611b54f8fad7acf818b15385002
p652
g3
(g4
(I0
tS'b'
tRp653
(I1
(I3
tg7
I00
S'\x00\x00\x80?\x00\x00\x1b?\x00\x00\x1b?'
tbsV331b14e413e88542855664c845c08c63
p654
g3
(g4
(I0
tS'b'
tRp655
(I1
(I3
tg7
I00
S'\x00\x00\x00@\x00\x00\x1e?\x00\x00\x1e?'
tbsV57af0020213d64598ede82fe9d6bb8b3
p656
g3
(g4
(I0
tS'b'
tRp657
(I1
(I3
tg7
I00
S'\x00\x00\xa0?\x00\x004?\x00\x004?'
tbsVc5887c21bafb90eb8534e1a632ff2754
p658
g3
(g4
(I0
tS'b'
tRp659
(I1
(I3
tg7
I00
S'\x00\x00\xa0?\x00\x004?\x00\x004?'
tbsVf89a08a93f1ceaccb0cba52156fd6f03
p660
g3
(g4
(I0
tS'b'
tRp661
(I1
(I3
tg7
I00
S'\x00f\xe6?\x01\x00\x1b?\x01\x00\x1b?'
tbsV750ed950a05e5fae10b4d25ed9bcd021
p662
g3
(g4
(I0
tS'b'
tRp663
(I1
(I3
tg7
I00
S'\x00\x00\x00@\x00\x004?\x00\x004?'
tbsVb79126e0038faca869185cfe49a4e163
p664
g3
(g4
(I0
tS'b'
tRp665
(I1
(I3
tg7
I00
S'\x00\x00\xa0?\x04\x00/?\x04\x00/?'
tbsVd104e584e51830ea51ee60e69186f83b
p666
g3
(g4
(I0
tS'b'
tRp667
(I1
(I3
tg7
I00
S'\x00\x00\x00@q=*?q=*?'
tbsV323792e42c4f43448b2b1a9651ecb779
p668
g3
(g4
(I0
tS'b'
tRp669
(I1
(I3
tg7
I00
S'\x00\x00 @\x00\x004?\x00\x004?'
tbsV356bc45910503ffde017a066581a3798
p670
g3
(g4
(I0
tS'b'
tRp671
(I1
(I3
tg7
I00
S'\x00\x00\x00@\x08\x00\x16?\x08\x00\x16?'
tbsV1098cb63ea33f752a850929234576bcb
p672
g3
(g4
(I0
tS'b'
tRp673
(I1
(I3
tg7
I00
S'\x00\x00\x00@\x00\x00.?\x00\x00.?'
tbsVb4db5b96c65a668a2e63f9a3ed36afe7
p674
g3
(g4
(I0
tS'b'
tRp675
(I1
(I3
tg7
I00
S'\x00\x00\x00@\x00\x00\x0c?\x00\x00\x0c?'
tbsVa2fc15125f7e222b3d8d579167f4fc95
p676
g3
(g4
(I0
tS'b'
tRp677
(I1
(I3
tg7
I00
S'\x00f\xe6?\x00\x00 ?\x00\x00 ?'
tbsVab9c7bef62d1ad65b824414087b6f06b
p678
g3
(g4
(I0
tS'b'
tRp679
(I1
(I3
tg7
I00
S'\x00\x00 @\x08\x00\x16?\x08\x00\x16?'
tbsV90e5f4780b2f05136ff5f776a5cbc2af
p680
g3
(g4
(I0
tS'b'
tRp681
(I1
(I3
tg7
I00
S'\x00\x00 @\xfe\x7fH?\xfe\x7fH?'
tbsV5861f8f8e35c0713c61e8ab3bc54c905
p682
g3
(g4
(I0
tS'b'
tRp683
(I1
(I3
tg7
I00
S'\x00\x00\x00@\xf8\xff)?\xf8\xff)?'
tbsVd0c1c175814c610bc333080152a605f7
p684
g3
(g4
(I0
tS'b'
tRp685
(I1
(I3
tg7
I00
S'\x00\x00\x00@\x04\x00\x17?\x04\x00\x17?'
tbsV5ce91933688cc8400105bf640ac11535
p686
g3
(g4
(I0
tS'b'
tRp687
(I1
(I3
tg7
I00
S'\x00\x00 @\x00\x00\x0c?\x00\x00\x0c?'
tbsVd13d9be7873c99a9fde9d24a95f1590d
p688
g3
(g4
(I0
tS'b'
tRp689
(I1
(I3
tg7
I00
S'\x00\x00\x00@\x00\x00*?\x00\x00*?'
tbsV7842c108866fccf9b1b56dca68fc355e
p690
g3
(g4
(I0
tS'b'
tRp691
(I1
(I3
tg7
I00
S'\x00\x00\x00@\x04\x00\x07?\x04\x00\x07?'
tbsVdd281294b34eb6deb76ef9f38169d50e
p692
g3
(g4
(I0
tS'b'
tRp693
(I1
(I3
tg7
I00
S'\x00\x00 @\xfc\xff(?\xfc\xff(?'
tbsV9ba5fbcccfbc9e08edcfe2258ddf7178
p694
g3
(g4
(I0
tS'b'
tRp695
(I1
(I3
tg7
I00
S'\x00\x00\x00@\x00\x00\x19?\x00\x00\x19?'
tbsVa88c585e7d81744eec091a6f0600bd7b
p696
g3
(g4
(I0
tS'b'
tRp697
(I1
(I3
tg7
I00
S'\x00\x00\x00@\x00\x00*?\x00\x00*?'
tbsVc313167b76fb2528816d40088ba88c77
p698
g3
(g4
(I0
tS'b'
tRp699
(I1
(I3
tg7
I00
S'\x00\x00 @\x00\x004?\x00\x004?'
tbsV58bf189f6021ecea213c13eed7484d84
p700
g3
(g4
(I0
tS'b'
tRp701
(I1
(I3
tg7
I00
S'\x00\x00 @\x00\x00 ?\x00\x00 ?'
tbsV24626abe1c4544fb39d4e96e33275789
p702
g3
(g4
(I0
tS'b'
tRp703
(I1
(I3
tg7
I00
S'\x00\x00\x00@\xfc\xff8?\xfc\xff8?'
tbsV3938d2274f0576b70fffa9aa68af8874
p704
g3
(g4
(I0
tS'b'
tRp705
(I1
(I3
tg7
I00
S'\x00\x00\x00@\x08\x00>?\x08\x00>?'
tbsVc610439ebef643c7fd4b30de8088bb55
p706
g3
(g4
(I0
tS'b'
tRp707
(I1
(I3
tg7
I00
S'\x00\x00 @\xfc\xff8?\xfc\xff8?'
tbsV5d16819bd78c74448ce852a93bf423ad
p708
g3
(g4
(I0
tS'b'
tRp709
(I1
(I3
tg7
I00
S'\x00\x00\x00@\x00\x00 ?\x00\x00 ?'
tbsV750c11a0a87833e0bb26441b52b51399
p710
g3
(g4
(I0
tS'b'
tRp711
(I1
(I3
tg7
I00
S'\x00\x00\x00@\x08\x00\x16?\x08\x00\x16?'
tbsV0852f5124d69d7f8cd35fa31e1364d29
p712
g3
(g4
(I0
tS'b'
tRp713
(I1
(I3
tg7
I00
S'\x00\x00\x00@\xf8\xff)?\xf8\xff)?'
tbsV09ee522a3b7dbea48aa6d39afe240129
p714
g3
(g4
(I0
tS'b'
tRp715
(I1
(I3
tg7
I00
S'\x00\x00\x00@\x00\x00,?\x00\x00,?'
tbsV7050f8141e92fa42fd9c471a8b2f50ce
p716
g3
(g4
(I0
tS'b'
tRp717
(I1
(I3
tg7
I00
S'\x00\x00\x00@\x00\x00 ?\x00\x00 ?'
tbsVf599c9bb0bd19126e13fba8b63d2de41
p718
g3
(g4
(I0
tS'b'
tRp719
(I1
(I3
tg7
I00
S'\x00\x00\x00@\x02\x80G?\x02\x80G?'
tbsVf207bb8bcccdc76143380849402a4f21
p720
g3
(g4
(I0
tS'b'
tRp721
(I1
(I3
tg7
I00
S'\x00\x00\x00@\xfc\xff8?\xfc\xff8?'
tbsV2ce2565b9839d8812cf0f9ad80371d3f
p722
g3
(g4
(I0
tS'b'
tRp723
(I1
(I3
tg7
I00
S'\x00\x00 @\xfa\x7f\x11?\xfa\x7f\x11?'
tbsV408646e125230c495be91fe171da736e
p724
g3
(g4
(I0
tS'b'
tRp725
(I1
(I3
tg7
I00
S'\x00\x00 @\x00\x004?\x00\x004?'
tbsV8c6f2ce60479f73c257173911aff3453
p726
g3
(g4
(I0
tS'b'
tRp727
(I1
(I3
tg7
I00
S'\x00\x00\x00@\x00\x00 ?\x00\x00 ?'
tbsVc8a82a4e7e76702f5f10ece6508f2bbe
p728
g3
(g4
(I0
tS'b'
tRp729
(I1
(I3
tg7
I00
S'\x00\x00 @\x04\x00/?\x04\x00/?'
tbsV6e3a7f8ef70e26252d25cc105a945f86
p730
g3
(g4
(I0
tS'b'
tRp731
(I1
(I3
tg7
I00
S'\x00\x00\x00@\x00\x00/?\x00\x00/?'
tbsV14afefc82d992018c485949285d20c03
p732
g3
(g4
(I0
tS'b'
tRp733
(I1
(I3
tg7
I00
S'\x00\x00\x00@\x00\x009?\x00\x009?'
tbsV4a782bbc2608288a3ed05e511af6f8bb
p734
g3
(g4
(I0
tS'b'
tRp735
(I1
(I3
tg7
I00
S'\x00\x00\x00@\x00\x00(?\x00\x00(?'
tbsVb8dc33b670bb078d10954345c3ffbb3a
p736
g3
(g4
(I0
tS'b'
tRp737
(I1
(I3
tg7
I00
S'\x00f\xe6?\x00\x00 ?\x00\x00 ?'
tbsVfb5874408966d7c6bebd3d84a5599e20
p738
g3
(g4
(I0
tS'b'
tRp739
(I1
(I3
tg7
I00
S'\x00\x00\xc0?\x00\x00$?\x00\x00$?'
tbsV721949894f5309ed4975a67419230a3c
p740
g3
(g4
(I0
tS'b'
tRp741
(I1
(I3
tg7
I00
S'\x00\x00\xa0?\x04\x00\x1b?\x04\x00\x1b?'
tbsVd66d6279f6a55d7263e2700749b4293b
p742
g3
(g4
(I0
tS'b'
tRp743
(I1
(I3
tg7
I00
S'\x00\x00 @\x00\x00 ?\x00\x00 ?'
tbsV38d89e67d2ea7e2ab023c10f5f19f716
p744
g3
(g4
(I0
tS'b'
tRp745
(I1
(I3
tg7
I00
S'\x00\x00 @\x04\x00\x1b?\x04\x00\x1b?'
tbsV3285ba0f447f3091c0c7c061b47c2f62
p746
g3
(g4
(I0
tS'b'
tRp747
(I1
(I3
tg7
I00
S'\x00\x00\xa0?\x00\x004?\x00\x004?'
tbsV573a661e2d784f9385a3b78c9757ddad
p748
g3
(g4
(I0
tS'b'
tRp749
(I1
(I3
tg7
I00
S'\x00\x00\x80?\x00\x00>?\x00\x00>?'
tbsV03ff23e445787886f8b0cb192b3c154d
p750
g3
(g4
(I0
tS'b'
tRp751
(I1
(I3
tg7
I00
S'\x00\x00 @\xfc\xff\x1c?\xfc\xff\x1c?'
tbsV07b1defcfae5873ee1f03c90255eb170
p752
g3
(g4
(I0
tS'b'
tRp753
(I1
(I3
tg7
I00
S'\x00\x00\x00@\x00\x00\x1e?\x00\x00\x1e?'
tbsVb8ad1b45ae4ba6c97951ed30b8640f6b
p754
g3
(g4
(I0
tS'b'
tRp755
(I1
(I3
tg7
I00
S'\x00\x00\xc0?\x00\x00>?\x00\x00>?'
tbsV7bcecfdddd3bd47e3b36ffb05bbdab60
p756
g3
(g4
(I0
tS'b'
tRp757
(I1
(I3
tg7
I00
S'\x00\x00\xa0?\x00\x004?\x00\x004?'
tbsV0268f3a7a17412178cfb039e71799a80
p758
g3
(g4
(I0
tS'b'
tRp759
(I1
(I3
tg7
I00
S'\x00\x00\x00@\xf8\xff)?\xf8\xff)?'
tbsV6a7f1fd0196a97568f2991c885ac1c0b
p760
g3
(g4
(I0
tS'b'
tRp761
(I1
(I3
tg7
I00
S'\x00\x00\xa0?\x00\x004?\x00\x004?'
tbsV506b07466777f6c6f4dd50a42896a2c4
p762
g3
(g4
(I0
tS'b'
tRp763
(I1
(I3
tg7
I00
S'\x00\x00\xa0?\xfa\x7f5?\xfa\x7f5?'
tbsV5fe048f36bd2da6bdb63d8ff3c4022cd
p764
g3
(g4
(I0
tS'b'
tRp765
(I1
(I3
tg7
I00
S'\x00f\xe6?\x00\x80#?\x00\x80#?'
tbsV89bfbba58ee5cd0e346cdd6ffd3fa3a3
p766
g3
(g4
(I0
tS'b'
tRp767
(I1
(I3
tg7
I00
S'\x00\x00\xa0?\xfe\x7f\x1c?\xfe\x7f\x1c?'
tbsVfdf2a2f5b86aea0da54732056fc7ab48
p768
g3
(g4
(I0
tS'b'
tRp769
(I1
(I3
tg7
I00
S'\x00\x00\x00@\x00\x00*?\x00\x00*?'
tbsV6d3be6081d76d2365b080e599628d3bc
p770
g3
(g4
(I0
tS'b'
tRp771
(I1
(I3
tg7
I00
S'\x00\x00\x00@\x04\x00\x1b?\x04\x00\x1b?'
tbsV149cc798827099f8bdb97cf702027305
p772
g3
(g4
(I0
tS'b'
tRp773
(I1
(I3
tg7
I00
S'\x00\x00 @\x04\x00/?\x04\x00/?'
tbsV0de72529c30fe642bc60dcb75c87f6bd
p774
g3
(g4
(I0
tS'b'
tRp775
(I1
(I3
tg7
I00
S'\x00\x00 @\xf8\xff\x19?\xf8\xff\x19?'
tbsV7577cbd6961b0cab27f88727dcd2d6d3
p776
g3
(g4
(I0
tS'b'
tRp777
(I1
(I3
tg7
I00
S'\x00\x00\xa0?\xfc\xff\x10?\xfc\xff\x10?'
tbsV94df6d1ae21c5bfaebe6f8daf8fcd85b
p778
g3
(g4
(I0
tS'b'
tRp779
(I1
(I3
tg7
I00
S'\x00\x00\x00@\xfa\x7f=?\xfa\x7f=?'
tbsVda821546432756d377777d7f4c41ca2f
p780
g3
(g4
(I0
tS'b'
tRp781
(I1
(I3
tg7
I00
S'\x00f\xe6?\xff\xff$?\xff\xff$?'
tbsV8264a875a465c029f28110c725fec283
p782
g3
(g4
(I0
tS'b'
tRp783
(I1
(I3
tg7
I00
S'\x00\x00\x80?\x06\x80"?\x06\x80"?'
tbsV00cba091fa4ad62cc3200a657aeb957e
p784
g3
(g4
(I0
tS'b'
tRp785
(I1
(I3
tg7
I00
S'\x00\x00 @\xfc\xff\x18?\xfc\xff\x18?'
tbsVba71b330a16e8b4c852f9a8730ee33b9
p786
g3
(g4
(I0
tS'b'
tRp787
(I1
(I3
tg7
I00
S'\x00D\xe6?\x17\xd9.?\x17\xd9.?'
tbsV086f95a932c83faed289854083f48831
p788
g3
(g4
(I0
tS'b'
tRp789
(I1
(I3
tg7
I00
S'\x00\x00\x00@\x04\x00C?\x04\x00C?'
tbsV3b59edf7e74fcff927c912efc0e80f3a
p790
g3
(g4
(I0
tS'b'
tRp791
(I1
(I3
tg7
I00
S'\x00\x00\x00@\xff\xff$?\xff\xff$?'
tbsVfd7c0fb3c0e764357aa58e5f047be614
p792
g3
(g4
(I0
tS'b'
tRp793
(I1
(I3
tg7
I00
S'\x00\x00 @\x04\x00\x1b?\x04\x00\x1b?'
tbsV823b5f08ce145f837066d2e19dab10c1
p794
g3
(g4
(I0
tS'b'
tRp795
(I1
(I3
tg7
I00
S'\x00\x00\x00@\x06\x80*?\x06\x80*?'
tbsVc8594cc837b12c612d8b9a0913240f8a
p796
g3
(g4
(I0
tS'b'
tRp797
(I1
(I3
tg7
I00
S'\x00\x00\xc0?\x00\x00J?\x00\x00J?'
tbsV46199ffd681fd429aca3823c76f1034d
p798
g3
(g4
(I0
tS'b'
tRp799
(I1
(I3
tg7
I00
S'\x00\x00\x00@\x00\x00/?\x00\x00/?'
tbsV700bdc2723c2ac75a8a8376d9ca170ad
p800
g3
(g4
(I0
tS'b'
tRp801
(I1
(I3
tg7
I00
S'\x00\x00\x00@\xfa\x7f%?\xfa\x7f%?'
tbsVff5d8e90500cf324e7b04a2f07cf0399
p802
g3
(g4
(I0
tS'b'
tRp803
(I1
(I3
tg7
I00
S'\x00\x00\x00@\x00\x00(?\x00\x00(?'
tbsV61c0247462b00b95c4df16edd4486a06
p804
g3
(g4
(I0
tS'b'
tRp805
(I1
(I3
tg7
I00
S'\x00\x00\x00@\x00\x00>?\x00\x00>?'
tbsV7027c0b8c8f8dcc76c6e4ba923d60a2e
p806
g3
(g4
(I0
tS'b'
tRp807
(I1
(I3
tg7
I00
S'\x00\x00\xa0?\x04\x00\x1b?\x04\x00\x1b?'
tbsV678c5ec1360784e0fe797208069e0bbb
p808
g3
(g4
(I0
tS'b'
tRp809
(I1
(I3
tg7
I00
S'\x00\x00\x00@\x00\x00 ?\x00\x00 ?'
tbsV7b84056d69644df2a9452a1746d14d39
p810
g3
(g4
(I0
tS'b'
tRp811
(I1
(I3
tg7
I00
S'\x00\x00\x00@\x9c\xc4 ?\x9c\xc4 ?'
tbsVb227e1ab3efc4b3c5148a614d01edf50
p812
g3
(g4
(I0
tS'b'
tRp813
(I1
(I3
tg7
I00
S'\x00f\xe6?\x00\x00!?\x00\x00!?'
tbsVc19197af81f94110ddc23317e182f37d
p814
g3
(g4
(I0
tS'b'
tRp815
(I1
(I3
tg7
I00
S'\x00\x00\xa0?\xf8\xff)?\xf8\xff)?'
tbsVd42c998d037fb3003faba541e2cf649a
p816
g3
(g4
(I0
tS'b'
tRp817
(I1
(I3
tg7
I00
S'\x00\x00 @\xfc\xff8?\xfc\xff8?'
tbsV024efb7a1e67dc820eb61cbdaa090166
p818
g3
(g4
(I0
tS'b'
tRp819
(I1
(I3
tg7
I00
S'\x00\x00\x00@\x00\x00m?\x00\x00m?'
tbsVc3e6b43c5ac3f4ac052e0b0421f5b088
p820
g3
(g4
(I0
tS'b'
tRp821
(I1
(I3
tg7
I00
S'\x00\x00\xa0?\xfe\x7f ?\xfe\x7f ?'
tbsV7f45518a2f938a92fa99658d98770316
p822
g3
(g4
(I0
tS'b'
tRp823
(I1
(I3
tg7
I00
S'\xc0\xff\x1f@\x00\x00 ?\x00\x00 ?'
tbsVf0f72264cd822301852578cc71288d3c
p824
g3
(g4
(I0
tS'b'
tRp825
(I1
(I3
tg7
I00
S'\x00\x00\x00@\x91\xed\x1c?\x91\xed\x1c?'
tbsV673ee14e01a0628b45c78500d402056e
p826
g3
(g4
(I0
tS'b'
tRp827
(I1
(I3
tg7
I00
S'\x00\x00\xa0?\xfc\xff$?\xfc\xff$?'
tbsVf74cbe4dda0f80dd66e15e64563689c6
p828
g3
(g4
(I0
tS'b'
tRp829
(I1
(I3
tg7
I00
S'\x00\x00\x00@\x00\x00/?\x00\x00/?'
tbsV0eb39d23d0f68ade9b5d8e6b3aee04d2
p830
g3
(g4
(I0
tS'b'
tRp831
(I1
(I3
tg7
I00
S'\x00\x00\xa0?\x04\x00C?\x04\x00C?'
tbsVad914d487aae66bcc2a7760a959d8a7c
p832
g3
(g4
(I0
tS'b'
tRp833
(I1
(I3
tg7
I00
S'\x00\x00\x00@\x00\x00*?\x00\x00*?'
tbsVd3eaad692dc96b1a1765076716f55421
p834
g3
(g4
(I0
tS'b'
tRp835
(I1
(I3
tg7
I00
S'\x00\x00\x00@^\xba)?^\xba)?'
tbsV3464083b3e6e7c11d1fba925f0b914cd
p836
g3
(g4
(I0
tS'b'
tRp837
(I1
(I3
tg7
I00
S'\x00\x00\xa0?\xfa\x7f!?\xfa\x7f!?'
tbsV7b43882369098df840e51421e6059aea
p838
g3
(g4
(I0
tS'b'
tRp839
(I1
(I3
tg7
I00
S'\x00\x00\x80?\x00\x00>?\x00\x00>?'
tbsVc0a71c28edac0a4bbdf64f058903c4b4
p840
g3
(g4
(I0
tS'b'
tRp841
(I1
(I3
tg7
I00
S'\x00\x00 ?\xfc\xff(?\xfc\xff(?'
tbsV2fced53a125854edb9284ff12795caf8
p842
g3
(g4
(I0
tS'b'
tRp843
(I1
(I3
tg7
I00
S'\x00h\xe6?\x00\x00\x0e?\x00\x00\x0e?'
tbsV71e09cd11d743964f1abf442c34f2c9d
p844
g3
(g4
(I0
tS'b'
tRp845
(I1
(I3
tg7
I00
S'\x00\x00\x00@\xfc\xff$?\xfc\xff$?'
tbsVc7bdb83b7ca6269fac16ab7cff930a2e
p846
g3
(g4
(I0
tS'b'
tRp847
(I1
(I3
tg7
I00
S'\x00\x00 @\x00\x00 ?\x00\x00 ?'
tbsVfe26fd2bb25112b3c2ca93eb8e34f8ed
p848
g3
(g4
(I0
tS'b'
tRp849
(I1
(I3
tg7
I00
S'\x00\x00\x00@\x04\x00\x1b?\x04\x00\x1b?'
tbsV4575fe61bf3f536ce6cfeb26fcc2893c
p850
g3
(g4
(I0
tS'b'
tRp851
(I1
(I3
tg7
I00
S'\x00\x00\xa0?\x00\x00H?\x00\x00H?'
tbsV71665cc6a7ee85268ca1da69c94bbaeb
p852
g3
(g4
(I0
tS'b'
tRp853
(I1
(I3
tg7
I00
S'\x00\x00\xa0?\xfc\xff$?\xfc\xff$?'
tbsVb769e3486463214cf631bf7ab6655801
p854
g3
(g4
(I0
tS'b'
tRp855
(I1
(I3
tg7
I00
S'\x00\x00\x00@\x00\x00 ?\x00\x00 ?'
tbsV4b7f72b889e85b479305f8fbc8cc4f48
p856
g3
(g4
(I0
tS'b'
tRp857
(I1
(I3
tg7
I00
S'\x00f\xe6?\x00\x00 ?\x00\x00 ?'
tbsV6b4837a316e688d0ba125cc1e545d383
p858
g3
(g4
(I0
tS'b'
tRp859
(I1
(I3
tg7
I00
S'\x00f\xe6?\x00\x00*?\x00\x00*?'
tbsVa13d6c5f8f86d74e16c10cf9294bca31
p860
g3
(g4
(I0
tS'b'
tRp861
(I1
(I3
tg7
I00
S'\x00\x00\x00@\x00\x00,?\x00\x00,?'
tbsV2eb92d17ca91b393765e8acf069763a6
p862
g3
(g4
(I0
tS'b'
tRp863
(I1
(I3
tg7
I00
S'\x00\x00 @\x00\x004?\x00\x004?'
tbsV11f10c2a0bfd231deeec98d69e4d0767
p864
g3
(g4
(I0
tS'b'
tRp865
(I1
(I3
tg7
I00
S'\x00\x00 @\x00\x004?\x00\x004?'
tbsV229b8b785f880f61d8dad636c3dc2687
p866
g3
(g4
(I0
tS'b'
tRp867
(I1
(I3
tg7
I00
S'\x00f\xe6?\x00\x00>?\x00\x00>?'
tbsVf8f66fca04d2e67eacd86ea154827a4c
p868
g3
(g4
(I0
tS'b'
tRp869
(I1
(I3
tg7
I00
S'\x00\x00\x00@\xfc\xffD?\xfc\xffD?'
tbsVfd2dd970bd3d91e5b26d7e57c03f70af
p870
g3
(g4
(I0
tS'b'
tRp871
(I1
(I3
tg7
I00
S'\x00\x00\xa0?\x00\x00H?\x00\x00H?'
tbsVf8ecf6be8ae631c6dd694c9638a02b45
p872
g3
(g4
(I0
tS'b'
tRp873
(I1
(I3
tg7
I00
S'\x00\x00 @\xf8\xff!?\xf8\xff!?'
tbsV0c37613214faddf8701ca41e6d43f56e
p874
g3
(g4
(I0
tS'b'
tRp875
(I1
(I3
tg7
I00
S'\x00\x00\x00@\x00\x004?\x00\x004?'
tbsV19ca60da880961c50f1b99b66f252e8f
p876
g3
(g4
(I0
tS'b'
tRp877
(I1
(I3
tg7
I00
S'\x00\x00\x00@\xff\xff8?\xff\xff8?'
tbsV4165b6e956c0e46e94abf7d98f8d8fe2
p878
g3
(g4
(I0
tS'b'
tRp879
(I1
(I3
tg7
I00
S'\x00\x00\x00@\x00\x00\x16?\x00\x00\x16?'
tbsV8c4d81d9d24d9d66e9ced5f40d07960a
p880
g3
(g4
(I0
tS'b'
tRp881
(I1
(I3
tg7
I00
S'\x00\x00\xc0?\x00\x00!?\x00\x00!?'
tbsV0c98fcb55e3f36d0c2b6507f62f4c5f1
p882
g3
(g4
(I0
tS'b'
tRp883
(I1
(I3
tg7
I00
S'\x00\x00\x00@\x04\x00/?\x04\x00/?'
tbsV440fb90654b1436e7c3bbdac991b8c1d
p884
g3
(g4
(I0
tS'b'
tRp885
(I1
(I3
tg7
I00
S'\x00\x00\x00@\x04\x00\x1b?\x04\x00\x1b?'
tbsV33293edbc834da033aa061f7d6a45fa1
p886
g3
(g4
(I0
tS'b'
tRp887
(I1
(I3
tg7
I00
S'\x00\x00 @\xfc\xff$?\xfc\xff$?'
tbsV0257df465d9e4150adef13303433ff1e
p888
g3
(g4
(I0
tS'b'
tRp889
(I1
(I3
tg7
I00
S'\x00\x00\x00@\n\xd7#?\n\xd7#?'
tbsVe3bc0a970a4af5d52826e06742f90e5b
p890
g3
(g4
(I0
tS'b'
tRp891
(I1
(I3
tg7
I00
S'\x00\x00\x00@\x00\x00\x16?\x00\x00\x16?'
tbsV7c2b72f9e0f5649c22902292febdc89f
p892
g3
(g4
(I0
tS'b'
tRp893
(I1
(I3
tg7
I00
S'\x00\x00 @\x00\x00\x0c?\x00\x00\x0c?'
tbsV9d89b32f7dea356b2d35cead7bc94d80
p894
g3
(g4
(I0
tS'b'
tRp895
(I1
(I3
tg7
I00
S'\x00\x00\x00@\x01\x00\x17?\x01\x00\x17?'
tbsV91d0606b85ab7dbc7bab718c1312f2df
p896
g3
(g4
(I0
tS'b'
tRp897
(I1
(I3
tg7
I00
S'\x00\x00\x00@\xe9&\x11?\xe9&\x11?'
tbsV2922aac33a190fd3939de337fe3f0a34
p898
g3
(g4
(I0
tS'b'
tRp899
(I1
(I3
tg7
I00
S'\x00f\xe6?\xff\xff\x10?\xff\xff\x10?'
tbsVee71210fa398cbb080f6c537a503e806
p900
g3
(g4
(I0
tS'b'
tRp901
(I1
(I3
tg7
I00
S'\x00\x00\x00@\xa8\xc6\x0b?\xa8\xc6\x0b?'
tbsV608a7028689c6ab3aea5f116007169b2
p902
g3
(g4
(I0
tS'b'
tRp903
(I1
(I3
tg7
I00
S'\x00\x00\xc0?\x00\x00:?\x00\x00:?'
tbsVaa2747369e1a0c724bea611ea7e5ffcf
p904
g3
(g4
(I0
tS'b'
tRp905
(I1
(I3
tg7
I00
S'\x00\x00\x00@\x00\x004?\x00\x004?'
tbsVc713ec80637677965806579fce0b7dca
p906
g3
(g4
(I0
tS'b'
tRp907
(I1
(I3
tg7
I00
S'\x00\x00\x80?\x00\x00+?\x00\x00+?'
tbsV2a65c8b6d5cc50866de8caa4caabbb6d
p908
g3
(g4
(I0
tS'b'
tRp909
(I1
(I3
tg7
I00
S'\x00\x00\x00@\xfc\xff\x10?\xfc\xff\x10?'
tbsVfcfab3eddbdf0421c39f71d651cc5c56
p910
g3
(g4
(I0
tS'b'
tRp911
(I1
(I3
tg7
I00
S'\x00\x00\xa0?\x00\x004?\x00\x004?'
tbsVf029c73f6f8753e7447c4e9f22e917ad
p912
g3
(g4
(I0
tS'b'
tRp913
(I1
(I3
tg7
I00
S'\x00\x00\x00@\x08\x00\x16?\x08\x00\x16?'
tbsV483b89a4ffbbd85acc8b9af5a541dd4d
p914
g3
(g4
(I0
tS'b'
tRp915
(I1
(I3
tg7
I00
S'\x00\x00 @\x04\x00/?\x04\x00/?'
tbsVfa9575f64e6881c6b2730f0e225c9573
p916
g3
(g4
(I0
tS'b'
tRp917
(I1
(I3
tg7
I00
S'\x00\x00 @\x04\x00\x1b?\x04\x00\x1b?'
tbsVcb0110b3780d2cf1134221404b82713a
p918
g3
(g4
(I0
tS'b'
tRp919
(I1
(I3
tg7
I00
S'\x00\x00\x00@\x04\x00/?\x04\x00/?'
tbsVf39a1e54d79731e4417aa8159d19b7d4
p920
g3
(g4
(I0
tS'b'
tRp921
(I1
(I3
tg7
I00
S'\x00\x00\xa0?\xf8\xff)?\xf8\xff)?'
tbsV3b7384f374b73d2bd589ccbf1b651820
p922
g3
(g4
(I0
tS'b'
tRp923
(I1
(I3
tg7
I00
S'\x00\x00 @\x04\x00/?\x04\x00/?'
tbsV39dc5f09d7b8eeda7f2f02c86f53247d
p924
g3
(g4
(I0
tS'b'
tRp925
(I1
(I3
tg7
I00
S'\x00f\xe6?\x00\x000?\x00\x000?'
tbsV1e33cb12436a64853c1ae9e918633e05
p926
g3
(g4
(I0
tS'b'
tRp927
(I1
(I3
tg7
I00
S'\x00\x00\xc0?\x00\x80\x0c?\x00\x80\x0c?'
tbsV0092c13f9e00a3717fdc940641f00015
p928
g3
(g4
(I0
tS'b'
tRp929
(I1
(I3
tg7
I00
S'\x00\x00\x00@\x00\x00*?\x00\x00*?'
tbsVdf1354de25723c9a55e1241d4c40ffe2
p930
g3
(g4
(I0
tS'b'
tRp931
(I1
(I3
tg7
I00
S'\x00\x00 @\x00\x00 ?\x00\x00 ?'
tbsV6d75fe2462284150249a04d78781189e
p932
g3
(g4
(I0
tS'b'
tRp933
(I1
(I3
tg7
I00
S'\x00\x00 @\x00\x00 ?\x00\x00 ?'
tbsVa5cac127acd59505d8f1582b95f80983
p934
g3
(g4
(I0
tS'b'
tRp935
(I1
(I3
tg7
I00
S'\x00\x00\xa0?\x08\x00\x0e?\x08\x00\x0e?'
tbsV25c1c4f008e8addc4d386cab58815052
p936
g3
(g4
(I0
tS'b'
tRp937
(I1
(I3
tg7
I00
S'\x00\x00 @\xfa\x7f\x1d?\xfa\x7f\x1d?'
tbsV96fdfdfc4417d5bf8e6750edbac8ff90
p938
g3
(g4
(I0
tS'b'
tRp939
(I1
(I3
tg7
I00
S'\x00\x00\x00@\x00\x00H?\x00\x00H?'
tbsVf4bee414210374e68b6746f70b38d461
p940
g3
(g4
(I0
tS'b'
tRp941
(I1
(I3
tg7
I00
S'\x00\x00\x00@\x00\x004?\x00\x004?'
tbsV7051fc0fcf2344a2967d9a1a5478208e
p942
g3
(g4
(I0
tS'b'
tRp943
(I1
(I3
tg7
I00
S'\x00\x00 @\x04\x00/?\x04\x00/?'
tbsVe1c92d3f85a37bd8bb963345b6d66e03
p944
g3
(g4
(I0
tS'b'
tRp945
(I1
(I3
tg7
I00
S'\x00f\xe6?\x00\x00\x07?\x00\x00\x07?'
tbsVbcb416e94f3505c120a54dbfc0d5a234
p946
g3
(g4
(I0
tS'b'
tRp947
(I1
(I3
tg7
I00
S'\x00\x00 @\x00\x004?\x00\x004?'
tbsV6799964c08ad5ce7740defcd3bd037a6
p948
g3
(g4
(I0
tS'b'
tRp949
(I1
(I3
tg7
I00
S'\x00\x00\xa0?\x00\x00H?\x00\x00H?'
tbsV1b7ca8dad5c36feb0a6abf8079173e22
p950
g3
(g4
(I0
tS'b'
tRp951
(I1
(I3
tg7
I00
S'\x00\x00\x80?\x04\x00??\x04\x00??'
tbsVfa45178d023325b255a3d4fc3e96cb7d
p952
g3
(g4
(I0
tS'b'
tRp953
(I1
(I3
tg7
I00
S'\x00\x00 @\xfe\x7f$?\xfe\x7f$?'
tbsV84402e42c992259ac8cdd98b51d4fba3
p954
g3
(g4
(I0
tS'b'
tRp955
(I1
(I3
tg7
I00
S'\x00\x00\x00@/\xdd$?/\xdd$?'
tbsVaf6d573b8c6804e14e3a7b07a376e593
p956
g3
(g4
(I0
tS'b'
tRp957
(I1
(I3
tg7
I00
S'\x00\x00 @\x00\x00\x0c?\x00\x00\x0c?'
tbsV31d037f6e359b56aec064fd3e348adb5
p958
g3
(g4
(I0
tS'b'
tRp959
(I1
(I3
tg7
I00
S'\x00\x00\x00@\xf8\xff)?\xf8\xff)?'
tbsV9d44fcc8ab801ac9244da4c016d0541e
p960
g3
(g4
(I0
tS'b'
tRp961
(I1
(I3
tg7
I00
S'\x00\x00\xa0?\x00\x00\\?\x00\x00\\?'
tbsVe3034ac9c2799b9a9cee2111593d9853
p962
g3
(g4
(I0
tS'b'
tRp963
(I1
(I3
tg7
I00
S'\x00\x00 @\x00\x00H?\x00\x00H?'
tbsV2b89691a0744504491ef91d711d94918
p964
g3
(g4
(I0
tS'b'
tRp965
(I1
(I3
tg7
I00
S'\x00\x98\xd9?\xd5x)?\xd5x)?'
tbsV763288341ee363a264fe45a28ea28c21
p966
g3
(g4
(I0
tS'b'
tRp967
(I1
(I3
tg7
I00
S'\x00\x00\x00@\x00\x004?\x00\x004?'
tbsV96dce4424dce5451ab0a068c58435c1b
p968
g3
(g4
(I0
tS'b'
tRp969
(I1
(I3
tg7
I00
S'\x00\x00 @\x00\x00 ?\x00\x00 ?'
tbsV8f6e50767b3bc4367bfe551b0ed73773
p970
g3
(g4
(I0
tS'b'
tRp971
(I1
(I3
tg7
I00
S'\x00\x00 @\xfc\xffH?\xfc\xffH?'
tbsVc2878958469b61d4f4406bbe945f8bd7
p972
g3
(g4
(I0
tS'b'
tRp973
(I1
(I3
tg7
I00
S'\x00\x00\x00@\x00\x00\x0e?\x00\x00\x0e?'
tbsV66a92d789e440d3dbef3c69d20e20694
p974
g3
(g4
(I0
tS'b'
tRp975
(I1
(I3
tg7
I00
S'\x00\x00 @\x08\x00&?\x08\x00&?'
tbsV570ea80b0dcc08f3e8751a6f4b2b1cd5
p976
g3
(g4
(I0
tS'b'
tRp977
(I1
(I3
tg7
I00
S'\x00\x00 @\xfc\xff$?\xfc\xff$?'
tbsV65073aadb60e398d8db1806f5ea2a082
p978
g3
(g4
(I0
tS'b'
tRp979
(I1
(I3
tg7
I00
S'\x00\x00\x00@\x00\x00\x0c?\x00\x00\x0c?'
tbsV762d3d698144370d197a7b9bc978d6c9
p980
g3
(g4
(I0
tS'b'
tRp981
(I1
(I3
tg7
I00
S'\x00\x00\xa0?\x00\x00$?\x00\x00$?'
tbsV17f5ae9fa49c4e47624f344d29bd03eb
p982
g3
(g4
(I0
tS'b'
tRp983
(I1
(I3
tg7
I00
S'\x00\x00\x00@\xf8\xff)?\xf8\xff)?'
tbsVc67de8fbbe1e58b464334f93a1dd0447
p984
g3
(g4
(I0
tS'b'
tRp985
(I1
(I3
tg7
I00
S'\x00\x00 @\x04\x00\x1b?\x04\x00\x1b?'
tbsV9660e4a23b8dd7d5056a622ee3568a41
p986
g3
(g4
(I0
tS'b'
tRp987
(I1
(I3
tg7
I00
S'\x00\x00\x00@\xfc\xff\x10?\xfc\xff\x10?'
tbsV7eb217c0444e5d866bd462ade5266a06
p988
g3
(g4
(I0
tS'b'
tRp989
(I1
(I3
tg7
I00
S'\x00\x00\x00@\x85\xeb\x11?\x85\xeb\x11?'
tbsV5ae60d42ec7eb7a79ce9a72967cbb6aa
p990
g3
(g4
(I0
tS'b'
tRp991
(I1
(I3
tg7
I00
S'\x00\x00\xa0?\x00\x004?\x00\x004?'
tbsVe58b78dc31d80a50285816f4ecd661e3
p992
g3
(g4
(I0
tS'b'
tRp993
(I1
(I3
tg7
I00
S'\x00\x00\x00@Zd\x1b?Zd\x1b?'
tbsVad5f3a8ee73c1ff4cf401746be3bd493
p994
g3
(g4
(I0
tS'b'
tRp995
(I1
(I3
tg7
I00
S'\x00\x00 @\x08\x00\x16?\x08\x00\x16?'
tbsV7395f64fba89c2463a1b13c400adf876
p996
g3
(g4
(I0
tS'b'
tRp997
(I1
(I3
tg7
I00
S'\x00\x00\xa0?\x04\x00C?\x04\x00C?'
tbsV33387bea2cacf6127035cc7033036a02
p998
g3
(g4
(I0
tS'b'
tRp999
(I1
(I3
tg7
I00
S'\x00\x00\x00@\x17\xd9\x0e?\x17\xd9\x0e?'
tbsV512397206b42f1f8d009113511ae2937
p1000
g3
(g4
(I0
tS'b'
tRp1001
(I1
(I3
tg7
I00
S'\x00\x00\xa0?\xf8\xff)?\xf8\xff)?'
tbsV40c95c9be0bd7c290534ce374c58bec9
p1002
g3
(g4
(I0
tS'b'
tRp1003
(I1
(I3
tg7
I00
S'\x00\x00\x00@\xfc\xff8?\xfc\xff8?'
tbsV2eb8aedb5274414e05041b7be65db3e3
p1004
g3
(g4
(I0
tS'b'
tRp1005
(I1
(I3
tg7
I00
S'\x00\x00\x00@\x00\x00(?\x00\x00(?'
tbsV064366faa1a83fdcb18b2538f1717290
p1006
g3
(g4
(I0
tS'b'
tRp1007
(I1
(I3
tg7
I00
S'\x00\x00 @\xf8\xff)?\xf8\xff)?'
tbsV327c4e9f365aec05222e253d1a80a1d4
p1008
g3
(g4
(I0
tS'b'
tRp1009
(I1
(I3
tg7
I00
S'\x00\x00 @\x00\x00,?\x00\x00,?'
tbsV74b68f9442209bace31aa62027fbb79a
p1010
g3
(g4
(I0
tS'b'
tRp1011
(I1
(I3
tg7
I00
S'\x00\x00\xa0?\xfc\xff$?\xfc\xff$?'
tbsV9a5c2aa17362a58ae8adcb4e0a46c7e0
p1012
g3
(g4
(I0
tS'b'
tRp1013
(I1
(I3
tg7
I00
S'\x00\x00\x80?\x00\x00.?\x00\x00.?'
tbsV428e25dfddfe731fc73f4e1739422181
p1014
g3
(g4
(I0
tS'b'
tRp1015
(I1
(I3
tg7
I00
S'\x00\x00 @\x00\x004?\x00\x004?'
tbsVa6c15206edadab0270898f03e770d730
p1016
g3
(g4
(I0
tS'b'
tRp1017
(I1
(I3
tg7
I00
S'\x00\x00 @\x00\x004?\x00\x004?'
tbsVa14e41eea93d7667a87d458d5cb28272
p1018
g3
(g4
(I0
tS'b'
tRp1019
(I1
(I3
tg7
I00
S'\x00\x00\xa0?\x00\x00H?\x00\x00H?'
tbsV744bb5ab2a706c8070a3f5cd72848ccc
p1020
g3
(g4
(I0
tS'b'
tRp1021
(I1
(I3
tg7
I00
S'\x00\x00\xa0?\x08\x00>?\x08\x00>?'
tbsV195842462645f0f331147a4c6b129a37
p1022
g3
(g4
(I0
tS'b'
tRp1023
(I1
(I3
tg7
I00
S'\x00f\xe6?\x00\x00\x11?\x00\x00\x11?'
tbsV28054f63c5a6ef24e06d8c34258babd6
p1024
g3
(g4
(I0
tS'b'
tRp1025
(I1
(I3
tg7
I00
S'\x00\x00\x00@\x00\x00*?\x00\x00*?'
tbsV68e905099a1c18242aba55c9901eaaae
p1026
g3
(g4
(I0
tS'b'
tRp1027
(I1
(I3
tg7
I00
S'\x00\x00\xa0?\x00\x004?\x00\x004?'
tbsV72a1e35c34052e163f61585ba0c9daf4
p1028
g3
(g4
(I0
tS'b'
tRp1029
(I1
(I3
tg7
I00
S"\x00h\xe6?'1H?'1H?"
tbsVf29d00ddf6d9846aa600c3f0edf5f952
p1030
g3
(g4
(I0
tS'b'
tRp1031
(I1
(I3
tg7
I00
S'\x00\x00\xa0?\x00\x004?\x00\x004?'
tbsVd81ab3ad896e4198caed105c469a4817
p1032
g3
(g4
(I0
tS'b'
tRp1033
(I1
(I3
tg7
I00
S'\x00f\xe6?\x00\x80\r?\x00\x80\r?'
tbsVde4d3724030397e71d2ac2ab16df5fba
p1034
g3
(g4
(I0
tS'b'
tRp1035
(I1
(I3
tg7
I00
S'\x00\x00\x00@\x08\x00>?\x08\x00>?'
tbsV94cd77da118cc1d667cd9732853f0c48
p1036
g3
(g4
(I0
tS'b'
tRp1037
(I1
(I3
tg7
I00
S'\x00\x00\x80?\x00\x004?\x00\x004?'
tbsV935908ab6e4c329756638887f2dedca2
p1038
g3
(g4
(I0
tS'b'
tRp1039
(I1
(I3
tg7
I00
S'\x00\x00 @\x08\x00\x16?\x08\x00\x16?'
tbsVe46973b13a7a6f421430d81fc1dda970
p1040
g3
(g4
(I0
tS'b'
tRp1041
(I1
(I3
tg7
I00
S'\x00\x00\x00@\x00\x00H?\x00\x00H?'
tbsV1748ad43b222be66f3e5ae4bd70c02ac
p1042
g3
(g4
(I0
tS'b'
tRp1043
(I1
(I3
tg7
I00
S'\x00\x00\x00@\x00\x00 ?\x00\x00 ?'
tbsVf89e3d0867e27be8e19d7ed50e1eb7e8
p1044
g3
(g4
(I0
tS'b'
tRp1045
(I1
(I3
tg7
I00
S'\x00\x00 @\x00\x004?\x00\x004?'
tbsV6d60c26d7d35ffd967127b380ff01c12
p1046
g3
(g4
(I0
tS'b'
tRp1047
(I1
(I3
tg7
I00
S'\x00\x00\x00@\x04\x00/?\x04\x00/?'
tbsV2fd66be0a5e07b8bd4be1d8169cd846f
p1048
g3
(g4
(I0
tS'b'
tRp1049
(I1
(I3
tg7
I00
S'\x00\x00\xa0?\x00\x00\x0c?\x00\x00\x0c?'
tbsV2885e3af725bc58dc1522d4bfb24bb2b
p1050
g3
(g4
(I0
tS'b'
tRp1051
(I1
(I3
tg7
I00
S'\x00\x00 @\xfc\xff\x10?\xfc\xff\x10?'
tbsV63458b5875a0b223ec21555d17b52fd4
p1052
g3
(g4
(I0
tS'b'
tRp1053
(I1
(I3
tg7
I00
S'\x00\x00 @\xfc\xff4?\xfc\xff4?'
tbsV81affb342fc98aae0201a6c837cfc3bb
p1054
g3
(g4
(I0
tS'b'
tRp1055
(I1
(I3
tg7
I00
S'\x00\xff\xff?\x08\x00\x16?\x08\x00\x16?'
tbsVc004a9415539a0bc98c42c1a444cedb8
p1056
g3
(g4
(I0
tS'b'
tRp1057
(I1
(I3
tg7
I00
S'\x00\x00 @\x08\x00>?\x08\x00>?'
tbsV08643d7b9ce18405fb63f63dda258e76
p1058
g3
(g4
(I0
tS'b'
tRp1059
(I1
(I3
tg7
I00
S'\x00\x00\x00@\x01\x00??\x01\x00??'
tbsVab9e5f1718f2af09030dd33b531f066c
p1060
g3
(g4
(I0
tS'b'
tRp1061
(I1
(I3
tg7
I00
S'\x00h\xe6?\x00\x00 ?\x00\x00 ?'
tbsV2117642550461db380a019bbd10a95e5
p1062
g3
(g4
(I0
tS'b'
tRp1063
(I1
(I3
tg7
I00
S'\x00\x00\x00@\x00\x00>?\x00\x00>?'
tbsV89629540f3b3cbc2a18d9919facd34d0
p1064
g3
(g4
(I0
tS'b'
tRp1065
(I1
(I3
tg7
I00
S'\x00\x00\x00@\x00\x004?\x00\x004?'
tbsVc545ccf3a5128fdc313ed936f61658a6
p1066
g3
(g4
(I0
tS'b'
tRp1067
(I1
(I3
tg7
I00
S'\x00\x00\x00@\x00\x002?\x00\x002?'
tbsV1cf8e778167d20bf769669b4be96592b
p1068
g3
(g4
(I0
tS'b'
tRp1069
(I1
(I3
tg7
I00
S'\x00\x00\x00@\x00\x009?\x00\x009?'
tbsVf1a64fda219db48bcfb8ad3823ef9fc1
p1070
g3
(g4
(I0
tS'b'
tRp1071
(I1
(I3
tg7
I00
S'\x00\x00\x00@\x00\x00\x0c?\x00\x00\x0c?'
tbsV52f6d741e674f62fbcf73e6ec4f6a472
p1072
g3
(g4
(I0
tS'b'
tRp1073
(I1
(I3
tg7
I00
S'\x00\x00\x00@\x00\x004?\x00\x004?'
tbsVb2d6eb577e716ade61ca89b6bb3dcabb
p1074
g3
(g4
(I0
tS'b'
tRp1075
(I1
(I3
tg7
I00
S'\x00\x00 @\xfe\x7f\x0c?\xfe\x7f\x0c?'
tbsV7daeb8ef7307849c715f7f6f3e2dd88e
p1076
g3
(g4
(I0
tS'b'
tRp1077
(I1
(I3
tg7
I00
S'\x00\x00 @\x00\x004?\x00\x004?'
tbsV199ff05d08ade6e298d37cc542bc3565
p1078
g3
(g4
(I0
tS'b'
tRp1079
(I1
(I3
tg7
I00
S'\x00\x00\x00@\xfe\x7f4?\xfe\x7f4?'
tbsVd9ef71a00fd504eac1a6dd104c93ce56
p1080
g3
(g4
(I0
tS'b'
tRp1081
(I1
(I3
tg7
I00
S'\x00\x00 @\xfc\xff\x10?\xfc\xff\x10?'
tbsVe43afa905c8e279f818b2d5104f6762b
p1082
g3
(g4
(I0
tS'b'
tRp1083
(I1
(I3
tg7
I00
S'\x00\x00\xa0?\xf8\xff)?\xf8\xff)?'
tbsVcaf5e9cd994c3c90727d274dd790133a
p1084
g3
(g4
(I0
tS'b'
tRp1085
(I1
(I3
tg7
I00
S'\x00\x00 @\x04\x00/?\x04\x00/?'
tbsV28352e12fe29361dfd9613ed2e729192
p1086
g3
(g4
(I0
tS'b'
tRp1087
(I1
(I3
tg7
I00
S'\x00\x00\xa0?\x04\x00??\x04\x00??'
tbsV09d7c4a3e1076dcfcae2b0a563a28364
p1088
g3
(g4
(I0
tS'b'
tRp1089
(I1
(I3
tg7
I00
S'\x00\x00\x00@\x00\x00*?\x00\x00*?'
tbsVfb55849cee6473974612c17f094a38cd
p1090
g3
(g4
(I0
tS'b'
tRp1091
(I1
(I3
tg7
I00
S'\x00\x00 @\x04\x00/?\x04\x00/?'
tbsV9397a41c9e819a92eb5c86e0e652d7c1
p1092
g3
(g4
(I0
tS'b'
tRp1093
(I1
(I3
tg7
I00
S'\x00\x00 ?\xfc\xff ?\xfc\xff ?'
tbsVac57a379cfea05c07d9befe8b9359495
p1094
g3
(g4
(I0
tS'b'
tRp1095
(I1
(I3
tg7
I00
S'\x00\x00\xa0?\x00\x004?\x00\x004?'
tbsVdf54dc42705decd3f75ec8fd8040e76e
p1096
g3
(g4
(I0
tS'b'
tRp1097
(I1
(I3
tg7
I00
S'\x00\x00\x00@\x00\x001?\x00\x001?'
tbsVeee8e1b2533abcb73e4b03969a3a5904
p1098
g3
(g4
(I0
tS'b'
tRp1099
(I1
(I3
tg7
I00
S'\x00\x00\x00@\xfc\xff8?\xfc\xff8?'
tbsV1c81d86923dad37b411f3a5936eb622d
p1100
g3
(g4
(I0
tS'b'
tRp1101
(I1
(I3
tg7
I00
S'\x00\x00\x00@\x00\x00/?\x00\x00/?'
tbsV898bd4c517fb9cf94c7d06dae56b0136
p1102
g3
(g4
(I0
tS'b'
tRp1103
(I1
(I3
tg7
I00
S'\x00\x00\xa0?\x08\x00>?\x08\x00>?'
tbsV366cfab448dbe55fd63b01adac0b1c56
p1104
g3
(g4
(I0
tS'b'
tRp1105
(I1
(I3
tg7
I00
S'\x00\x00\xa0?\x08\x00>?\x08\x00>?'
tbsV718f43ecf121c79899caba1e528bd43e
p1106
g3
(g4
(I0
tS'b'
tRp1107
(I1
(I3
tg7
I00
S'\x00\x00 @\x08\x00>?\x08\x00>?'
tbsV2fc3d8ef26fc7aafad44d5034673dd4c
p1108
g3
(g4
(I0
tS'b'
tRp1109
(I1
(I3
tg7
I00
S'\x00\x00\x00@\x04\x00\x1b?\x04\x00\x1b?'
tbsV9de48cf43611478ffc1fef051b75dc8c
p1110
g3
(g4
(I0
tS'b'
tRp1111
(I1
(I3
tg7
I00
S'\x00\x00 @\xf8\xff)?\xf8\xff)?'
tbsV624a34fa8fd36847724e749877343847
p1112
g3
(g4
(I0
tS'b'
tRp1113
(I1
(I3
tg7
I00
S'\x00\x00\x00@\xf8\xff!?\xf8\xff!?'
tbsV7f096cdfbc2fe03ec7f779278416a78c
p1114
g3
(g4
(I0
tS'b'
tRp1115
(I1
(I3
tg7
I00
S'\x00\x00\x00@\xfc\xff$?\xfc\xff$?'
tbsVe787e5fd289a9f1f6bba31569b7ad384
p1116
g3
(g4
(I0
tS'b'
tRp1117
(I1
(I3
tg7
I00
S'\x00\x00\x00@\x00\x00"?\x00\x00"?'
tbsV274a81c75d244187247789bd71de2b3a
p1118
g3
(g4
(I0
tS'b'
tRp1119
(I1
(I3
tg7
I00
S'\x00f\xe6?\x00\x00\x0c?\x00\x00\x0c?'
tbsV7ae953bb9e0356d2990ee6655c8bd168
p1120
g3
(g4
(I0
tS'b'
tRp1121
(I1
(I3
tg7
I00
S'\x00\x00 @\x00\x004?\x00\x004?'
tbsVf3d40bbf94a7951dee3b0028e301a126
p1122
g3
(g4
(I0
tS'b'
tRp1123
(I1
(I3
tg7
I00
S'\x00\x00 @\xfe\x7f\x08?\xfe\x7f\x08?'
tbsV67ccc2ecd7716e1cab05caaedea99f4b
p1124
g3
(g4
(I0
tS'b'
tRp1125
(I1
(I3
tg7
I00
S'\x00\x00\x00@\xfc\xff(?\xfc\xff(?'
tbsVd459ff0332d2b10be26eee73b1f80f7b
p1126
g3
(g4
(I0
tS'b'
tRp1127
(I1
(I3
tg7
I00
S'\x00\x00\x00@\x04\x00/?\x04\x00/?'
tbsVef3be197823bfa8c6976ca2621e253d5
p1128
g3
(g4
(I0
tS'b'
tRp1129
(I1
(I3
tg7
I00
S'\x00\x00\x00@\x00\x00(?\x00\x00(?'
tbsV0c0de3749d4fe175b7a5098b060982a1
p1130
g3
(g4
(I0
tS'b'
tRp1131
(I1
(I3
tg7
I00
S'\x00\x00 @\xfa\x7f1?\xfa\x7f1?'
tbsVb3f57de0b4ad4dfae87698ef8fc67e23
p1132
g3
(g4
(I0
tS'b'
tRp1133
(I1
(I3
tg7
I00
S'\x00\x00\x00@\x00\x00<?\x00\x00<?'
tbsVf395ca14ccb03ad40e98d1473cf686ef
p1134
g3
(g4
(I0
tS'b'
tRp1135
(I1
(I3
tg7
I00
S'\x00\x00\x00@\x00\x00\x1b?\x00\x00\x1b?'
tbsV722429bc9cb25d6f4b7a820c14bf2ab1
p1136
g3
(g4
(I0
tS'b'
tRp1137
(I1
(I3
tg7
I00
S'\x00\x00 @\xfa\x7f\t?\xfa\x7f\t?'
tbsV8c5288b86ffcd597f10d639e9948411d
p1138
g3
(g4
(I0
tS'b'
tRp1139
(I1
(I3
tg7
I00
S'\x00\x00\x00@\x00\x00\x04?\x00\x00\x04?'
tbsVf7a03adba817f2a2249b9dee0586f4be
p1140
g3
(g4
(I0
tS'b'
tRp1141
(I1
(I3
tg7
I00
S'\x00\x00 @\x00\x00 ?\x00\x00 ?'
tbsV14f713c1ef037f6c531cffdff0e5fb2c
p1142
g3
(g4
(I0
tS'b'
tRp1143
(I1
(I3
tg7
I00
S'\x00f\xe6?\x00\x00*?\x00\x00*?'
tbsVeeb1659b92b00e20bd8b6e7eef6b5c9d
p1144
g3
(g4
(I0
tS'b'
tRp1145
(I1
(I3
tg7
I00
S'\x00\x00\x00@\x00\x00\r?\x00\x00\r?'
tbsV799c0026d66479f7447ed0df5955f051
p1146
g3
(g4
(I0
tS'b'
tRp1147
(I1
(I3
tg7
I00
S'\x00\x00\xa0?\x04\x00\x13?\x04\x00\x13?'
tbsV3bd4f83c5930e8c1e193ccc463543745
p1148
g3
(g4
(I0
tS'b'
tRp1149
(I1
(I3
tg7
I00
S'\x00f\xe6?\x00\x00>?\x00\x00>?'
tbsVbfdf6f821031435d9a397afe001ad774
p1150
g3
(g4
(I0
tS'b'
tRp1151
(I1
(I3
tg7
I00
S'\x00\x00\x00@\xfa\x7f\x19?\xfa\x7f\x19?'
tbsV1fdbc07019192de4a114e090389c8330
p1152
g3
(g4
(I0
tS'b'
tRp1153
(I1
(I3
tg7
I00
S'\x00\x00 @\xfc\xff\x10?\xfc\xff\x10?'
tbsV9560214767e1257dc97c5103a27f1d2c
p1154
g3
(g4
(I0
tS'b'
tRp1155
(I1
(I3
tg7
I00
S'\x00\x00\x00@\xfc\xff$?\xfc\xff$?'
tbsV10f03fe0b77d39c758d6fb12304edfdb
p1156
g3
(g4
(I0
tS'b'
tRp1157
(I1
(I3
tg7
I00
S'\x00\x00 @\xfe\x7f8?\xfe\x7f8?'
tbsV6541df84fd779ba6513a530c128f4e9b
p1158
g3
(g4
(I0
tS'b'
tRp1159
(I1
(I3
tg7
I00
S'\x00\x00\x00@\xfc\xff8?\xfc\xff8?'
tbsVac00af80df36484660203d5816d697aa
p1160
g3
(g4
(I0
tS'b'
tRp1161
(I1
(I3
tg7
I00
S'\x00\x00 @\x08\x00>?\x08\x00>?'
tbsV0b20184e0cd497028bdd155d9fb42dc9
p1162
g3
(g4
(I0
tS'b'
tRp1163
(I1
(I3
tg7
I00
S'\x00f\xe6?\x00\x004?\x00\x004?'
tbsV7b6c63074678f65784bdc54d8d385b83
p1164
g3
(g4
(I0
tS'b'
tRp1165
(I1
(I3
tg7
I00
S'\x00\x00\x00@\x00\x00%?\x00\x00%?'
tbsV5faa4b8d9e86c157b7b16e67f22e7210
p1166
g3
(g4
(I0
tS'b'
tRp1167
(I1
(I3
tg7
I00
S'\x00\x00\x00@\x04\x00/?\x04\x00/?'
tbsVc95f2aa23e6d6702f5b16a3b35f89cf0
p1168
g3
(g4
(I0
tS'b'
tRp1169
(I1
(I3
tg7
I00
S'\x00\x00\x00@\x04\x00\x1b?\x04\x00\x1b?'
tbsVd2282b0eb61b8d3b090cf8eb76776529
p1170
g3
(g4
(I0
tS'b'
tRp1171
(I1
(I3
tg7
I00
S'\x00\xbc\xd9?\xc9v\x1e?\xc9v\x1e?'
tbsV66a94647459dd5a13f4336e1421119c5
p1172
g3
(g4
(I0
tS'b'
tRp1173
(I1
(I3
tg7
I00
S'\x00f\xe6?\x00\x00%?\x00\x00%?'
tbsV74dca439eb5b6dfa5e33c6d2119630ff
p1174
g3
(g4
(I0
tS'b'
tRp1175
(I1
(I3
tg7
I00
S'\x00\x00\xc0?\x00\x80\x16?\x00\x80\x16?'
tbsV1030bb45e9f660c3466f013dcb270520
p1176
g3
(g4
(I0
tS'b'
tRp1177
(I1
(I3
tg7
I00
S'\x00\x00\x00@\x00\x00 ?\x00\x00 ?'
tbsV540dbb66efa0f76499464689756e69f4
p1178
g3
(g4
(I0
tS'b'
tRp1179
(I1
(I3
tg7
I00
S'\x00\x00 @\x00\x004?\x00\x004?'
tbsV25a3b616f6cc89e74f6502d65b687972
p1180
g3
(g4
(I0
tS'b'
tRp1181
(I1
(I3
tg7
I00
S'\x00\x00\x00@\x00\x00 ?\x00\x00 ?'
tbsVd8a0ebe575539c2357c2365cdf0229a0
p1182
g3
(g4
(I0
tS'b'
tRp1183
(I1
(I3
tg7
I00
S'\x00\x00\x00@\x06\x80\x16?\x06\x80\x16?'
tbsV654f2095bace27af870cdfcc66f9717c
p1184
g3
(g4
(I0
tS'b'
tRp1185
(I1
(I3
tg7
I00
S'\x00\x00\x00@\x08\x00>?\x08\x00>?'
tbsVa4ebf3e2861b7845845bad3bacbbaeb5
p1186
g3
(g4
(I0
tS'b'
tRp1187
(I1
(I3
tg7
I00
S'\x00\x00\xa0?\xfa\x7f!?\xfa\x7f!?'
tbsV398208da1bcb6a88e11a7314065f13ff
p1188
g3
(g4
(I0
tS'b'
tRp1189
(I1
(I3
tg7
I00
S'\x00\x00\x00@\xfc\xff8?\xfc\xff8?'
tbsV178663e1e238cdfa4d4eb9679e5d0aa4
p1190
g3
(g4
(I0
tS'b'
tRp1191
(I1
(I3
tg7
I00
S'\x00\x00\x00@\xf8\xffQ?\xf8\xffQ?'
tbsVc2ef34cc347bc224b5a123426009d027
p1192
g3
(g4
(I0
tS'b'
tRp1193
(I1
(I3
tg7
I00
S'\x00\x00 @\x00\x004?\x00\x004?'
tbsV124c4188604434bcdec8358c8ddf9a8b
p1194
g3
(g4
(I0
tS'b'
tRp1195
(I1
(I3
tg7
I00
S'\x00\x00\x00@\x00\x004?\x00\x004?'
tbsVb997943f8b95d72ca9a3c36f5c695412
p1196
g3
(g4
(I0
tS'b'
tRp1197
(I1
(I3
tg7
I00
S'\x00\x00\x00@\x00\x004?\x00\x004?'
tbsVe5438d842118e579a340a78f3c5775cc
p1198
g3
(g4
(I0
tS'b'
tRp1199
(I1
(I3
tg7
I00
S'\x00\x00\xc0?\x00\x00C?\x00\x00C?'
tbsV6cf71f5017945c9dd8bc0f5126eeef5b
p1200
g3
(g4
(I0
tS'b'
tRp1201
(I1
(I3
tg7
I00
S'\x00\x00\x00@\xc3\xf5(?\xc3\xf5(?'
tbsV8c7b03ed7f61c7faa5a26e126d769404
p1202
g3
(g4
(I0
tS'b'
tRp1203
(I1
(I3
tg7
I00
S'\x00\x00\x00@\xfe\x7f\x1c?\xfe\x7f\x1c?'
tbsVa162d204827e4e89a2e5ba81cc53247a
p1204
g3
(g4
(I0
tS'b'
tRp1205
(I1
(I3
tg7
I00
S'\x00\x00\x00@\x00\x00\x16?\x00\x00\x16?'
tbsVfa968673987cfd078d91641294c3bf63
p1206
g3
(g4
(I0
tS'b'
tRp1207
(I1
(I3
tg7
I00
S'\x00f\xe6?\xff\xff\x10?\xff\xff\x10?'
tbsV6be677ba1631174397b0c1e26a46af30
p1208
g3
(g4
(I0
tS'b'
tRp1209
(I1
(I3
tg7
I00
S'\x00\x00\x00@\x00\x00 ?\x00\x00 ?'
tbsV3f6431400c2a07a46386dba3929da45d
p1210
g3
(g4
(I0
tS'b'
tRp1211
(I1
(I3
tg7
I00
S'\x00\x00\x00@\x00\x00*?\x00\x00*?'
tbsVa654285bc604830f627687fa821d7dd3
p1212
g3
(g4
(I0
tS'b'
tRp1213
(I1
(I3
tg7
I00
S'\x00\x00 @\x02\x80\x0b?\x02\x80\x0b?'
tbsV3a5bbc2f1f5d6d76a48ba5300105d998
p1214
g3
(g4
(I0
tS'b'
tRp1215
(I1
(I3
tg7
I00
S'\x00\x00 @\x00\x004?\x00\x004?'
tbsVbe024b0b5cf93c597758e65f348475af
p1216
g3
(g4
(I0
tS'b'
tRp1217
(I1
(I3
tg7
I00
S'\x00\x00\x00@\x00\x00C?\x00\x00C?'
tbsVf63f2f63e2619012b4c798fd638c8b8a
p1218
g3
(g4
(I0
tS'b'
tRp1219
(I1
(I3
tg7
I00
S'\x00\x00\xc0?\x00\x00+?\x00\x00+?'
tbsV9f19c381184ba62416025849c464630e
p1220
g3
(g4
(I0
tS'b'
tRp1221
(I1
(I3
tg7
I00
S'\x00\x00\x00@\x00\x00\x0c?\x00\x00\x0c?'
tbsVbb8393e219a2d5e3f8a183da638cc210
p1222
g3
(g4
(I0
tS'b'
tRp1223
(I1
(I3
tg7
I00
S'\x00\x00\xa0?\x00\x00 ?\x00\x00 ?'
tbsV12e0e2036f61c8a52ee4471bf813c36a
p1224
g3
(g4
(I0
tS'b'
tRp1225
(I1
(I3
tg7
I00
S'\x00\x00\x00@\xfc\xff\x14?\xfc\xff\x14?'
tbsV3a3a7a6b3d2a4ea6b1f5bc6ea715eab8
p1226
g3
(g4
(I0
tS'b'
tRp1227
(I1
(I3
tg7
I00
S'\x00\x00 @\xf8\xff\x01?\xf8\xff\x01?'
tbsV48fac79fead32f2b10e37752cb077af6
p1228
g3
(g4
(I0
tS'b'
tRp1229
(I1
(I3
tg7
I00
S'\x00\x00 @\xfc\xff\x10?\xfc\xff\x10?'
tbsV19f3b4dea7af5d6e13acb472d6af23d8
p1230
g3
(g4
(I0
tS'b'
tRp1231
(I1
(I3
tg7
I00
S'\x00\x00 @\x00\x00 ?\x00\x00 ?'
tbsV82b9fb9e238397b2f3bff98975577ff9
p1232
g3
(g4
(I0
tS'b'
tRp1233
(I1
(I3
tg7
I00
S'\x00g\xe6?\x00\x009?\x00\x009?'
tbsV436fd6ccfc92afc44c7d3ccfe26b6129
p1234
g3
(g4
(I0
tS'b'
tRp1235
(I1
(I3
tg7
I00
S'\x00\x00 @\xfa\x7f\x1d?\xfa\x7f\x1d?'
tbsVe608c0e6cf3adf3c9939593a3c322ef7
p1236
g3
(g4
(I0
tS'b'
tRp1237
(I1
(I3
tg7
I00
S'\x00\x00\x80?\x00\x004?\x00\x004?'
tbsV303b4b8425389134997a38b975c205d3
p1238
g3
(g4
(I0
tS'b'
tRp1239
(I1
(I3
tg7
I00
S'\x00\x00 @\xfc\xff\x10?\xfc\xff\x10?'
tbsVf37d1d5c299d4838b294cf82902675b0
p1240
g3
(g4
(I0
tS'b'
tRp1241
(I1
(I3
tg7
I00
S'\x00\x00 @\x04\x00\x07?\x04\x00\x07?'
tbsVbe57c648eb683a31e8499e278a89c5a0
p1242
g3
(g4
(I0
tS'b'
tRp1243
(I1
(I3
tg7
I00
S'\x00\x00\x00@\x00\x00\x02?\x00\x00\x02?'
tbsVdd5764803d51c71a27707d9db8c84aac
p1244
g3
(g4
(I0
tS'b'
tRp1245
(I1
(I3
tg7
I00
S'\x00g\xe6?\x00\x00%?\x00\x00%?'
tbsVa305389fe87d54597dfad222e47abac5
p1246
g3
(g4
(I0
tS'b'
tRp1247
(I1
(I3
tg7
I00
S'\x00\x00\x00@\x00\x00+?\x00\x00+?'
tbsVde9f65a7a70b73ce2ffef1e4a2613eee
p1248
g3
(g4
(I0
tS'b'
tRp1249
(I1
(I3
tg7
I00
S'\x00\x00\x00@\x00\x00 ?\x00\x00 ?'
tbsVd39d18ec79c7303a61f778f470d439ae
p1250
g3
(g4
(I0
tS'b'
tRp1251
(I1
(I3
tg7
I00
S'\x00f\xe6?\x00\x00\n?\x00\x00\n?'
tbsV9e471e15d44721a48d8b5f4b0a160dd6
p1252
g3
(g4
(I0
tS'b'
tRp1253
(I1
(I3
tg7
I00
S'\x00\x00 @\x00\x004?\x00\x004?'
tbsVd9fb9617188fe99bdb464c126d2bd8c0
p1254
g3
(g4
(I0
tS'b'
tRp1255
(I1
(I3
tg7
I00
S'\x00\x00 @\x04\x00/?\x04\x00/?'
tbsV9e878fd779fb4d20aaa80db151643442
p1256
g3
(g4
(I0
tS'b'
tRp1257
(I1
(I3
tg7
I00
S'\x00\x00\x00@\x00\x00;?\x00\x00;?'
tbsVb17cb533d71d63d548ce47b48b34c23c
p1258
g3
(g4
(I0
tS'b'
tRp1259
(I1
(I3
tg7
I00
S'\x00\x00\x00@\x00\x00 ?\x00\x00 ?'
tbsVa15d4fd19fb32f4858f472962c4bb230
p1260
g3
(g4
(I0
tS'b'
tRp1261
(I1
(I3
tg7
I00
S'\x00\x00\x00@o\x12\x03?o\x12\x03?'
tbsV2d81a9e760a07b25903a8c4aeb444eca
p1262
g3
(g4
(I0
tS'b'
tRp1263
(I1
(I3
tg7
I00
S'\x00\x00 @\x00\x00\x0c?\x00\x00\x0c?'
tbsVe188bdeea72bb41d980dc2556dc8aafa
p1264
g3
(g4
(I0
tS'b'
tRp1265
(I1
(I3
tg7
I00
S'\x00\x00\x00@\x00\x00 ?\x00\x00 ?'
tbsV40c044145f5c87c12bd8c725924add3c
p1266
g3
(g4
(I0
tS'b'
tRp1267
(I1
(I3
tg7
I00
S'\x00\x00\x00@D\x8b,?D\x8b,?'
tbsV645e7f46eb9b834153ecf8e2b2921fe5
p1268
g3
(g4
(I0
tS'b'
tRp1269
(I1
(I3
tg7
I00
S'\x00\x00 @\xfc\xff$?\xfc\xff$?'
tbsV003f41c78e6acfa92430a057ac0b306e
p1270
g3
(g4
(I0
tS'b'
tRp1271
(I1
(I3
tg7
I00
S'\x00\x00\xc0?\x00\x00O?\x00\x00O?'
tbsV31136e50b7205e9184227f94cdea0090
p1272
g3
(g4
(I0
tS'b'
tRp1273
(I1
(I3
tg7
I00
S'\x00h\xe6?{\x14N?{\x14N?'
tbsVc24798432bb6a0d4c80df831b8e09246
p1274
g3
(g4
(I0
tS'b'
tRp1275
(I1
(I3
tg7
I00
S'\x00\x00\xa0?\x00\x004?\x00\x004?'
tbsV9cc74e673ec9807ee055973e1b185624
p1276
g3
(g4
(I0
tS'b'
tRp1277
(I1
(I3
tg7
I00
S'\x00\x00\x00@\xfc\xff$?\xfc\xff$?'
tbsV605d3633c1625b4be151d38aad43de94
p1278
g3
(g4
(I0
tS'b'
tRp1279
(I1
(I3
tg7
I00
S'\x00\x00\xc0?\x00\x004?\x00\x004?'
tbsVc0279b938ac1790f1badfcd4459f5c4c
p1280
g3
(g4
(I0
tS'b'
tRp1281
(I1
(I3
tg7
I00
S'\x00h\xe6?\x00\x00/?\x00\x00/?'
tbsV6675d3cc20585f44d4c45746cb1002d4
p1282
g3
(g4
(I0
tS'b'
tRp1283
(I1
(I3
tg7
I00
S'\x00g\xe6?\x00\x00"?\x00\x00"?'
tbsVe3e518324e1a85b85f15d9127ed9ea89
p1284
g3
(g4
(I0
tS'b'
tRp1285
(I1
(I3
tg7
I00
S'\x00\x00\x00@\x00\x00\x11?\x00\x00\x11?'
tbsVe3423505ef6b43f03c5d7bde52a5a78c
p1286
g3
(g4
(I0
tS'b'
tRp1287
(I1
(I3
tg7
I00
S'\x00\x00\x00@\xff\xff$?\xff\xff$?'
tbsVcb8d3452b667596fbf132d2ce9ebd0e6
p1288
g3
(g4
(I0
tS'b'
tRp1289
(I1
(I3
tg7
I00
S'\x00f\xe6?\x00\x00*?\x00\x00*?'
tbsVc0c5a155e6e59588783c2964975e7e1e
p1290
g3
(g4
(I0
tS'b'
tRp1291
(I1
(I3
tg7
I00
S'\x00\x00\x00@\xfc\xff\x10?\xfc\xff\x10?'
tbsVbc848c4d50c2f72fdcc1102475b56525
p1292
g3
(g4
(I0
tS'b'
tRp1293
(I1
(I3
tg7
I00
S'\x00\x00\x00@\xf8\xff9?\xf8\xff9?'
tbsVb158f44c31f4121c865c828ff79fc73d
p1294
g3
(g4
(I0
tS'b'
tRp1295
(I1
(I3
tg7
I00
S'\x00\x00\x00@\x00\x00$?\x00\x00$?'
tbsVe129305f6d074d08cd2de0ebdfeaa576
p1296
g3
(g4
(I0
tS'b'
tRp1297
(I1
(I3
tg7
I00
S'\x00\x00\x00@\x00\x00M?\x00\x00M?'
tbsVd287819450e57ae8c883ed31dc4dc3a3
p1298
g3
(g4
(I0
tS'b'
tRp1299
(I1
(I3
tg7
I00
S'\x00\x00 @\x00\x00 ?\x00\x00 ?'
tbsVa76b682e74918492c1f2ca4c13c29885
p1300
g3
(g4
(I0
tS'b'
tRp1301
(I1
(I3
tg7
I00
S'\x00\x00\xa0?\x00\x00 ?\x00\x00 ?'
tbsVe10c2b829c39d4a500c09caf04d461a1
p1302
g3
(g4
(I0
tS'b'
tRp1303
(I1
(I3
tg7
I00
S"\x00\x00 @\x04\x00'?\x04\x00'?"
tbsVd559c9b1f2be30c82f8dbe4d73d67bd2
p1304
g3
(g4
(I0
tS'b'
tRp1305
(I1
(I3
tg7
I00
S'\x00f\xe6?\x00\x00 ?\x00\x00 ?'
tbsVfc658f9bc12a751a17f16589f9e3619b
p1306
g3
(g4
(I0
tS'b'
tRp1307
(I1
(I3
tg7
I00
S'\x00\x00 @\x00\x004?\x00\x004?'
tbsV43f2ef8f53e1aa03bfb6378d0c20a8ac
p1308
g3
(g4
(I0
tS'b'
tRp1309
(I1
(I3
tg7
I00
S'\x00\x00 ?\x00\x00/?\x00\x00/?'
tbsVd34741458ed4cf1ef6bcf3da21a0c47c
p1310
g3
(g4
(I0
tS'b'
tRp1311
(I1
(I3
tg7
I00
S'\x00f\xe6?\x00\x00#?\x00\x00#?'
tbsVb84c43bed6c51182d7536619b747343a
p1312
g3
(g4
(I0
tS'b'
tRp1313
(I1
(I3
tg7
I00
S'\x00\x00\x00@\x08\x00\x16?\x08\x00\x16?'
tbsV4d8f4de444a1f453e7ad32d067b0f630
p1314
g3
(g4
(I0
tS'b'
tRp1315
(I1
(I3
tg7
I00
S'\x00\x00\x00@\x00\x00\x14?\x00\x00\x14?'
tbsVa53a4a019a24541c277e0a84301d8ec5
p1316
g3
(g4
(I0
tS'b'
tRp1317
(I1
(I3
tg7
I00
S'\x80f\xe6?\x00\x004?\x00\x004?'
tbsV68f2b9c1fae9180356cb5c4fa95bd30a
p1318
g3
(g4
(I0
tS'b'
tRp1319
(I1
(I3
tg7
I00
S'\x00\x00 @\x00\x00 ?\x00\x00 ?'
tbsV4aea6c3360cd923d25f33ec5b5e643bc
p1320
g3
(g4
(I0
tS'b'
tRp1321
(I1
(I3
tg7
I00
S'\x00\x00\x80?\x00\x00\x17?\x00\x00\x17?'
tbsV74797049e8df8ed38947fd38840b539d
p1322
g3
(g4
(I0
tS'b'
tRp1323
(I1
(I3
tg7
I00
S'\x00\x00 @\x00\x00 ?\x00\x00 ?'
tbsVb3854df98b8325a98f7b48bbaf24bb02
p1324
g3
(g4
(I0
tS'b'
tRp1325
(I1
(I3
tg7
I00
S'\x00\x00\x00@\x00\x00\x0c?\x00\x00\x0c?'
tbsV99ce8aa6c0afe0e418f49823f8639776
p1326
g3
(g4
(I0
tS'b'
tRp1327
(I1
(I3
tg7
I00
S'\x00f\xe6?\x00\x00\x16?\x00\x00\x16?'
tbsV2f7088e4008c0ef2c88b6764af8c8815
p1328
g3
(g4
(I0
tS'b'
tRp1329
(I1
(I3
tg7
I00
S'\x00f\xe6?\x00\x00\x0e?\x00\x00\x0e?'
tbsV43fefd3f810ef71e0073d2415e7a6713
p1330
g3
(g4
(I0
tS'b'
tRp1331
(I1
(I3
tg7
I00
S'\x00f\xe6?\x00\x00\x1b?\x00\x00\x1b?'
tbsV9050cf3aa8371bd7088c4bdf967141d4
p1332
g3
(g4
(I0
tS'b'
tRp1333
(I1
(I3
tg7
I00
S'\x00g\xe6?\x00\x009?\x00\x009?'
tbsVcd68d1a14cc504e3f7434d5cc324744d
p1334
g3
(g4
(I0
tS'b'
tRp1335
(I1
(I3
tg7
I00
S'\x00\x00\x00@D\x8b\x0c?D\x8b\x0c?'
tbsV8c2f9e7025d6070e9f4ab8a65c8e9dbb
p1336
g3
(g4
(I0
tS'b'
tRp1337
(I1
(I3
tg7
I00
S'\x00\x00 @\xf8\xff)?\xf8\xff)?'
tbsV21bdacdcdb87bf401f34d5d582247c77
p1338
g3
(g4
(I0
tS'b'
tRp1339
(I1
(I3
tg7
I00
S'\x00\x00\xa0?\x08\x00>?\x08\x00>?'
tbsV48e592418247393234dd658f9112c543
p1340
g3
(g4
(I0
tS'b'
tRp1341
(I1
(I3
tg7
I00
S'\x00f\xe6?\x00\x004?\x00\x004?'
tbsVa26bba2936f12f19893e54b40e0759fe
p1342
g3
(g4
(I0
tS'b'
tRp1343
(I1
(I3
tg7
I00
S'\x00\x00\x00@\x00\x000?\x00\x000?'
tbsV8e60f166f1f1dc0d72f997fe1c9e72b4
p1344
g3
(g4
(I0
tS'b'
tRp1345
(I1
(I3
tg7
I00
S'\x00\x00\x00@\x00\x00\x18?\x00\x00\x18?'
tbsV6379e4435f78a5e5c150c32146ece4d4
p1346
g3
(g4
(I0
tS'b'
tRp1347
(I1
(I3
tg7
I00
S'\x00\x00 @\x04\x00/?\x04\x00/?'
tbsVf4d23e0272a2ce5bfc7f07033d4f2e7d
p1348
g3
(g4
(I0
tS'b'
tRp1349
(I1
(I3
tg7
I00
S'\x00\x00\x80?\x00\x004?\x00\x004?'
tbsV0482c444ac838adc5aa00d1064c976c1
p1350
g3
(g4
(I0
tS'b'
tRp1351
(I1
(I3
tg7
I00
S'\x00\x00\xa0?\x00\x004?\x00\x004?'
tbsVdaaf7680aa9a2b519e53b0e38300163d
p1352
g3
(g4
(I0
tS'b'
tRp1353
(I1
(I3
tg7
I00
S'\x00\x00\x00@\x00\x00 ?\x00\x00 ?'
tbsVe6d4a747235bfcc1feac759571c8485c
p1354
g3
(g4
(I0
tS'b'
tRp1355
(I1
(I3
tg7
I00
S'\x00f\xe6?\x00\x00 ?\x00\x00 ?'
tbsV099cec971282b1531d297e5d0d423598
p1356
g3
(g4
(I0
tS'b'
tRp1357
(I1
(I3
tg7
I00
S'\x00\x00 @\x00\x00(?\x00\x00(?'
tbsV45efbc7cc2657278f878bc973cecc141
p1358
g3
(g4
(I0
tS'b'
tRp1359
(I1
(I3
tg7
I00
S'\x00\x00 @\x08\x00>?\x08\x00>?'
tbsV573e900142c9e6e7b32ed9e5ffd5584c
p1360
g3
(g4
(I0
tS'b'
tRp1361
(I1
(I3
tg7
I00
S'\x00\x00\xc0?\x00\x00H?\x00\x00H?'
tbsV04a3187ec2ed4198a25033071897bffc
p1362
g3
(g4
(I0
tS'b'
tRp1363
(I1
(I3
tg7
I00
S'\x00\x00\x00@\x00\x006?\x00\x006?'
tbsV4cc8af2efef2f41bf70684be25276ce5
p1364
g3
(g4
(I0
tS'b'
tRp1365
(I1
(I3
tg7
I00
S'\x00\x00 @\x04\x00\x1f?\x04\x00\x1f?'
tbsVcceb1ae43615e5f144e31d1d1ebbdf90
p1366
g3
(g4
(I0
tS'b'
tRp1367
(I1
(I3
tg7
I00
S'\x00\x00 @\x04\x00\x1b?\x04\x00\x1b?'
tbsV29d92a1e253cef2c7f34c6db26ce11e3
p1368
g3
(g4
(I0
tS'b'
tRp1369
(I1
(I3
tg7
I00
S'\x00\x00\xa0?\x06\x806?\x06\x806?'
tbsV2dbb8c6c6ea4ff5c62b34bdf9ea03158
p1370
g3
(g4
(I0
tS'b'
tRp1371
(I1
(I3
tg7
I00
S'\x00\x00 @\x00\x00 ?\x00\x00 ?'
tbsV31f35f920a472a1c3eacb565fe027923
p1372
g3
(g4
(I0
tS'b'
tRp1373
(I1
(I3
tg7
I00
S'\x00g\xe6?\x00\x00\x19?\x00\x00\x19?'
tbsV2488c5b32e837dc848fe6fe4b1bbb7cb
p1374
g3
(g4
(I0
tS'b'
tRp1375
(I1
(I3
tg7
I00
S'\x00\x00 @\x00\x00\x0c?\x00\x00\x0c?'
tbsV4d7df08f074b221eec6311c2617a5ba8
p1376
g3
(g4
(I0
tS'b'
tRp1377
(I1
(I3
tg7
I00
S'\x00f\xe6?\x00\x00*?\x00\x00*?'
tbsV6e6d5603fb8fcf523f86ac0856e50236
p1378
g3
(g4
(I0
tS'b'
tRp1379
(I1
(I3
tg7
I00
S'\x00\x00\x00@\xf8\xff)?\xf8\xff)?'
tbsV7852cb521d7029ca08133476054e7bec
p1380
g3
(g4
(I0
tS'b'
tRp1381
(I1
(I3
tg7
I00
S'\x00\x00 @\xf8\xff)?\xf8\xff)?'
tbsVd2eecd9f13a6d474338045d0c91cffbd
p1382
g3
(g4
(I0
tS'b'
tRp1383
(I1
(I3
tg7
I00
S'\x00\x00 ?\x00\x004?\x00\x004?'
tbsV13bb12b3b27d5a7b4b142503a1ae9e73
p1384
g3
(g4
(I0
tS'b'
tRp1385
(I1
(I3
tg7
I00
S'\x00\x00\x00@\x00\x80\r?\x00\x80\r?'
tbsV00986bebc45e12038ef0ce3e9962b51a
p1386
g3
(g4
(I0
tS'b'
tRp1387
(I1
(I3
tg7
I00
S'\x00\x00 @\x04\x00/?\x04\x00/?'
tbsV83728b6eed98845556bfc870b7567883
p1388
g3
(g4
(I0
tS'b'
tRp1389
(I1
(I3
tg7
I00
S'\x00\x00 ?\x08\x00F?\x08\x00F?'
tbsV799b283083f1b6547d558f063b318e78
p1390
g3
(g4
(I0
tS'b'
tRp1391
(I1
(I3
tg7
I00
S'\x00\x00 @\xf8\xffQ?\xf8\xffQ?'
tbsV8269e2eb69b3ba38c48dd5ae6039e250
p1392
g3
(g4
(I0
tS'b'
tRp1393
(I1
(I3
tg7
I00
S'\x00\x00\x00@\x00\x00>?\x00\x00>?'
tbsV101a2999d28ce05788e6add3a28d4726
p1394
g3
(g4
(I0
tS'b'
tRp1395
(I1
(I3
tg7
I00
S'\x00\x00\x00@\xfe\x7f,?\xfe\x7f,?'
tbsV35105d801880bd889bac5ee3771ed38b
p1396
g3
(g4
(I0
tS'b'
tRp1397
(I1
(I3
tg7
I00
S'\x00\x00\xa0?\x00\x00\x10?\x00\x00\x10?'
tbsV402a18fa05523f80abb1e6d97793cc19
p1398
g3
(g4
(I0
tS'b'
tRp1399
(I1
(I3
tg7
I00
S'\x00\x00 @\xf8\xff)?\xf8\xff)?'
tbsV96acca47671874c41de6023942e10c16
p1400
g3
(g4
(I0
tS'b'
tRp1401
(I1
(I3
tg7
I00
S'\x00f\xe6?\x00\x807?\x00\x807?'
tbsVd2b47d9034d38a410f00dabba9754d91
p1402
g3
(g4
(I0
tS'b'
tRp1403
(I1
(I3
tg7
I00
S'\x00\x00\x00@\x00\x00\x11?\x00\x00\x11?'
tbsV19409b302d6c143d4f754146e91d4cfe
p1404
g3
(g4
(I0
tS'b'
tRp1405
(I1
(I3
tg7
I00
S'\x00\x00 @\x00\x004?\x00\x004?'
tbsV5278093ed7187e1a8be518d954509da7
p1406
g3
(g4
(I0
tS'b'
tRp1407
(I1
(I3
tg7
I00
S'\x00f\xe6?\x00\x80\x1a?\x00\x80\x1a?'
tbsV4b19444c570185fc4606e4e29fd1ce1c
p1408
g3
(g4
(I0
tS'b'
tRp1409
(I1
(I3
tg7
I00
S'\x00h\xe6?\x00\x00\x16?\x00\x00\x16?'
tbsV28e29fe26140703e5bbe570f982bd112
p1410
g3
(g4
(I0
tS'b'
tRp1411
(I1
(I3
tg7
I00
S'\x00\x00\x00@\x00\x00\x1b?\x00\x00\x1b?'
tbsV901ed0a38aa16933c04ffd531b0aa2cf
p1412
g3
(g4
(I0
tS'b'
tRp1413
(I1
(I3
tg7
I00
S'\x00\x00 @\x06\x80F?\x06\x80F?'
tbsV5d240c6a6d3009e61cb09ce49f641b4c
p1414
g3
(g4
(I0
tS'b'
tRp1415
(I1
(I3
tg7
I00
S'\x00\x00\x00@\x00\x00u?\x00\x00u?'
tbsVc0712bc73239d89cddd71a93865e2946
p1416
g3
(g4
(I0
tS'b'
tRp1417
(I1
(I3
tg7
I00
S'\x00\x00 @\x02\x80/?\x02\x80/?'
tbsV5bb9185543527cd034aa48fc0b623874
p1418
g3
(g4
(I0
tS'b'
tRp1419
(I1
(I3
tg7
I00
S'\x00\x00 @\x04\x00C?\x04\x00C?'
tbsVdbd9c8025907511e965e7abad955547d
p1420
g3
(g4
(I0
tS'b'
tRp1421
(I1
(I3
tg7
I00
S'\x00\x00\xa0?\x00\x004?\x00\x004?'
tbsV78c0a0104c0428e260cbd9e50eb7eea6
p1422
g3
(g4
(I0
tS'b'
tRp1423
(I1
(I3
tg7
I00
S'\x00\x00\x00@\x00\x00 ?\x00\x00 ?'
tbsVbc43e8a2cb05a45e73dea8c7e02f2cc1
p1424
g3
(g4
(I0
tS'b'
tRp1425
(I1
(I3
tg7
I00
S'\x00\x00\x00@\x00\x004?\x00\x004?'
tbsV5368521797323c89292781b8780e45b5
p1426
g3
(g4
(I0
tS'b'
tRp1427
(I1
(I3
tg7
I00
S'\x00\x00 @\x08\x00\x16?\x08\x00\x16?'
tbsV0a099f2549429d29b32f349e95fb2244
p1428
g3
(g4
(I0
tS'b'
tRp1429
(I1
(I3
tg7
I00
S'\x00\x00 @\xfa\x7f-?\xfa\x7f-?'
tbsV9f49140c0447a0c3108ba3591b11958f
p1430
g3
(g4
(I0
tS'b'
tRp1431
(I1
(I3
tg7
I00
S'\x00\x00 @\x00\x00 ?\x00\x00 ?'
tbsV552ef3f04be2073d2cf8a52431576c24
p1432
g3
(g4
(I0
tS'b'
tRp1433
(I1
(I3
tg7
I00
S'\x00\x00\x00@\x04\x00#?\x04\x00#?'
tbsVe4436b5914162ff7efea2bdfb71c19ae
p1434
g3
(g4
(I0
tS'b'
tRp1435
(I1
(I3
tg7
I00
S'\x00\x00\x00@\x00\x00.?\x00\x00.?'
tbsVd00ee8f03fb00562b2db35e90536ffc1
p1436
g3
(g4
(I0
tS'b'
tRp1437
(I1
(I3
tg7
I00
S'\x00\x00 ?\x00\x80)?\x00\x80)?'
tbsVa4ae73433e63549558a3d0eed9128a69
p1438
g3
(g4
(I0
tS'b'
tRp1439
(I1
(I3
tg7
I00
S'\x00\x00\x00@\xf8\xff)?\xf8\xff)?'
tbsV6993396b31078993e13cf9c0a6fd470b
p1440
g3
(g4
(I0
tS'b'
tRp1441
(I1
(I3
tg7
I00
S'\x00\x00\x00@\x00\x00*?\x00\x00*?'
tbsV76a77d945cd4c568f3b602957e1ec031
p1442
g3
(g4
(I0
tS'b'
tRp1443
(I1
(I3
tg7
I00
S'\x00\x00\x00@\x00\x004?\x00\x004?'
tbsVa59b1dc7e417fea605b34a5204f61f9d
p1444
g3
(g4
(I0
tS'b'
tRp1445
(I1
(I3
tg7
I00
S'\x00h\xe6?\x00\x00H?\x00\x00H?'
tbsV55eace190c5917cdfb390ca652149fbc
p1446
g3
(g4
(I0
tS'b'
tRp1447
(I1
(I3
tg7
I00
S'\x00g\xe6?\x00\x00\x1e?\x00\x00\x1e?'
tbsVf2f23b265b2a3b977cb81fe3193d7c2c
p1448
g3
(g4
(I0
tS'b'
tRp1449
(I1
(I3
tg7
I00
S"\x00\x00 @\x04\x00'?\x04\x00'?"
tbsVa334d15ac8d2d25bce76693b1b2a3ed7
p1450
g3
(g4
(I0
tS'b'
tRp1451
(I1
(I3
tg7
I00
S'\x00\x00\x00@\x04\x00#?\x04\x00#?'
tbsVb635cda3e75b4b7238c18c6a5f1858f6
p1452
g3
(g4
(I0
tS'b'
tRp1453
(I1
(I3
tg7
I00
S'\x00\x00\x00@\x01\x00\x13?\x01\x00\x13?'
tbsV990fbe3f0a1b53878669967b9afd1441
p1454
g3
(g4
(I0
tS'b'
tRp1455
(I1
(I3
tg7
I00
S'\x00d\xe6?\x00\x00H?\x00\x00H?'
tbsV159bc8821a2dc39a1e770cb3559e098d
p1456
g3
(g4
(I0
tS'b'
tRp1457
(I1
(I3
tg7
I00
S'\x00\x00\x00@\xf8\xff)?\xf8\xff)?'
tbsVf136a3df63637b499704a49fc0e3dfaf
p1458
g3
(g4
(I0
tS'b'
tRp1459
(I1
(I3
tg7
I00
S'\x00f\xe6?\x01\x00\x1b?\x01\x00\x1b?'
tbsV56e0f421b7faddcae027d7feb6dae8cd
p1460
g3
(g4
(I0
tS'b'
tRp1461
(I1
(I3
tg7
I00
S'\x00\x00 @\x00\x00\x0c?\x00\x00\x0c?'
tbsV76fff2029e577190ce0bf070192b889e
p1462
g3
(g4
(I0
tS'b'
tRp1463
(I1
(I3
tg7
I00
S'\x00\x00\xa0?\x00\x004?\x00\x004?'
tbsV252b5fd5c4a5eb77be4fbe41df49bd07
p1464
g3
(g4
(I0
tS'b'
tRp1465
(I1
(I3
tg7
I00
S"\x00\x00\x80?\x00\x00'?\x00\x00'?"
tbsVef8a19fb5314b3222482fa325dd49467
p1466
g3
(g4
(I0
tS'b'
tRp1467
(I1
(I3
tg7
I00
S'\x00\x00\x00@\x00\x00\x07?\x00\x00\x07?'
tbsVe572e978c2b50aca781e6302937e5b13
p1468
g3
(g4
(I0
tS'b'
tRp1469
(I1
(I3
tg7
I00
S'\x00\x00\xa0?\x00\x004?\x00\x004?'
tbsV2004b3f761c3f5dffb02204f1247b211
p1470
g3
(g4
(I0
tS'b'
tRp1471
(I1
(I3
tg7
I00
S'\x00\x00\x00@\x06\x80B?\x06\x80B?'
tbsVacbb4e34904af9781fe089f586418a21
p1472
g3
(g4
(I0
tS'b'
tRp1473
(I1
(I3
tg7
I00
S'\x00\x00\x00@\x02\x80\x17?\x02\x80\x17?'
tbsVf55f99177e8b4b267c71b4e5fa4116be
p1474
g3
(g4
(I0
tS'b'
tRp1475
(I1
(I3
tg7
I00
S'\x00\x00 @\x00\x00 ?\x00\x00 ?'
tbsV8c63c8ebd684911de92509a8a703d567
p1476
g3
(g4
(I0
tS'b'
tRp1477
(I1
(I3
tg7
I00
S'\x00\x00\x00@\x00\x00\x0c?\x00\x00\x0c?'
tbsVfb57fc6377fd37bb5d42756c2736586c
p1478
g3
(g4
(I0
tS'b'
tRp1479
(I1
(I3
tg7
I00
S'\x00\x00 @\x00\x004?\x00\x004?'
tbsV04fca9fbec0b803326488ade96897f6e
p1480
g3
(g4
(I0
tS'b'
tRp1481
(I1
(I3
tg7
I00
S'\x00f\xe6?\x00\x00 ?\x00\x00 ?'
tbsVeed63953a76074dd5ef7360e131f4852
p1482
g3
(g4
(I0
tS'b'
tRp1483
(I1
(I3
tg7
I00
S'\x00\x00\x00@\x06\x80"?\x06\x80"?'
tbsVc71d0db2086b7e2024ca9c11bd2ca504
p1484
g3
(g4
(I0
tS'b'
tRp1485
(I1
(I3
tg7
I00
S'\x00\x00\x00@\x08\x00>?\x08\x00>?'
tbsV3dfe8e80106f4136d2933ff72a16035c
p1486
g3
(g4
(I0
tS'b'
tRp1487
(I1
(I3
tg7
I00
S'\x00\x00\xc0?\x00\x006?\x00\x006?'
tbsV92286959d1899e9b480d29c545cb1e0f
p1488
g3
(g4
(I0
tS'b'
tRp1489
(I1
(I3
tg7
I00
S'\x00\x00 @\x04\x00/?\x04\x00/?'
tbsV34b00e3b98072207edd20732558f7ab5
p1490
g3
(g4
(I0
tS'b'
tRp1491
(I1
(I3
tg7
I00
S'\x00\x00\xa0?\x00\x00X?\x00\x00X?'
tbsV2365e0afe6844e955f3d4c23a16dc1a9
p1492
g3
(g4
(I0
tS'b'
tRp1493
(I1
(I3
tg7
I00
S'\x00\x00\xa0?\x00\x004?\x00\x004?'
tbsV649fd56ef9809019b57261fcf9574d76
p1494
g3
(g4
(I0
tS'b'
tRp1495
(I1
(I3
tg7
I00
S'\x00\x00\xc0?{\x14N?{\x14N?'
tbsV3252220375d82c3720d36d757bb17345
p1496
g3
(g4
(I0
tS'b'
tRp1497
(I1
(I3
tg7
I00
S'\x00\x00\x00@\x08\x00\x16?\x08\x00\x16?'
tbsV3557455d81f42ee54ad0544f36933e9a
p1498
g3
(g4
(I0
tS'b'
tRp1499
(I1
(I3
tg7
I00
S'\x00\x00\x00@\xff\xff$?\xff\xff$?'
tbsV12db1ea8336eafaf7f9e3eda2b4e4fef
p1500
g3
(g4
(I0
tS'b'
tRp1501
(I1
(I3
tg7
I00
S'\x00f\xe6?\x00\x00(?\x00\x00(?'
tbsV1e62be2c3b6430b78ce31a8f023531ac
p1502
g3
(g4
(I0
tS'b'
tRp1503
(I1
(I3
tg7
I00
S'\x00\x9a9?\x04\x00C?\x04\x00C?'
tbsV081f4a90f24ac33c14b61b97969b7f81
p1504
g3
(g4
(I0
tS'b'
tRp1505
(I1
(I3
tg7
I00
S'\x00\x00\x80?\x00\x004?\x00\x004?'
tbsVdcb426dd025b609489c8f520d6d644b7
p1506
g3
(g4
(I0
tS'b'
tRp1507
(I1
(I3
tg7
I00
S'\x00\x00 @\xfc\xff\x10?\xfc\xff\x10?'
tbsVf73624b8b22774acf9a3e2c748131eac
p1508
g3
(g4
(I0
tS'b'
tRp1509
(I1
(I3
tg7
I00
S'\x00\x00 @\xfc\xff,?\xfc\xff,?'
tbsVe6d8ae8c3b0817df994a1ce3b37a7efb
p1510
g3
(g4
(I0
tS'b'
tRp1511
(I1
(I3
tg7
I00
S"\x00\x00\x00@\x9e\xef'?\x9e\xef'?"
tbsVee88217bee233a3bfc971b450e3d8b85
p1512
g3
(g4
(I0
tS'b'
tRp1513
(I1
(I3
tg7
I00
S'\x00\x00 @\x02\x80;?\x02\x80;?'
tbsV2ed8eb4430bf40f5405495a5ec22a76d
p1514
g3
(g4
(I0
tS'b'
tRp1515
(I1
(I3
tg7
I00
S'\x00\x00 @\xfc\xff4?\xfc\xff4?'
tbsVf88ed45f3436cb30e494409dae76df5d
p1516
g3
(g4
(I0
tS'b'
tRp1517
(I1
(I3
tg7
I00
S'\x00\x00\x00@\x00\x00.?\x00\x00.?'
tbsVe6214ef879c6d01ae598161e50e23c0c
p1518
g3
(g4
(I0
tS'b'
tRp1519
(I1
(I3
tg7
I00
S'\x00\x00\x00@\x00\x00\x14?\x00\x00\x14?'
tbsVefd5b9e8cb651e18eba6a9623e36e7be
p1520
g3
(g4
(I0
tS'b'
tRp1521
(I1
(I3
tg7
I00
S'\x00\x00\x80?\x00\x00H?\x00\x00H?'
tbsVc65d665029c9561bc408f3651c3e2db2
p1522
g3
(g4
(I0
tS'b'
tRp1523
(I1
(I3
tg7
I00
S'\x00g\xe6?\x00\x004?\x00\x004?'
tbsVa8ff92ed7d8cf90d24f67ba6614c3e4f
p1524
g3
(g4
(I0
tS'b'
tRp1525
(I1
(I3
tg7
I00
S'\x00\x00\x00@\xff\xff$?\xff\xff$?'
tbsVc1f5ca42b0e336a7ab85b4c437b382c0
p1526
g3
(g4
(I0
tS'b'
tRp1527
(I1
(I3
tg7
I00
S'\x00\x00 @\x00\x00 ?\x00\x00 ?'
tbsVe33c25d0dbca5e54385f2100ce523467
p1528
g3
(g4
(I0
tS'b'
tRp1529
(I1
(I3
tg7
I00
S'\x00\x00 @\x00\x00 ?\x00\x00 ?'
tbsV0f5ab1976a1b1ef1c2eb1d340b0ce9c4
p1530
g3
(g4
(I0
tS'b'
tRp1531
(I1
(I3
tg7
I00
S'\x00\x00 @\x00\x00<?\x00\x00<?'
tbsV8c22afe3214768d4c585580a2364614d
p1532
g3
(g4
(I0
tS'b'
tRp1533
(I1
(I3
tg7
I00
S'\x00\x00\x00@\x00\x004?\x00\x004?'
tbsVcd6be62834c72756738935f904ec9c2c
p1534
g3
(g4
(I0
tS'b'
tRp1535
(I1
(I3
tg7
I00
S'\x00\x00\x00@q=\n?q=\n?'
tbsV7471f583e1fb0e34d9e582c313af4358
p1536
g3
(g4
(I0
tS'b'
tRp1537
(I1
(I3
tg7
I00
S'\x00\x00\xa0?\x04\x00\x07?\x04\x00\x07?'
tbsV2b2a95f76d7b6712690ee7be6838f868
p1538
g3
(g4
(I0
tS'b'
tRp1539
(I1
(I3
tg7
I00
S'\x00\x00\x00@\xfc\xff\x10?\xfc\xff\x10?'
tbsV6ae190bcd3fd9c581db4120f4465d65a
p1540
g3
(g4
(I0
tS'b'
tRp1541
(I1
(I3
tg7
I00
S'\x00\x00\x00@\x01\x00/?\x01\x00/?'
tbsV34cb3ac3d04e0d961e7578713bee6bb2
p1542
g3
(g4
(I0
tS'b'
tRp1543
(I1
(I3
tg7
I00
S'\x00\x00 @\xfc\xff$?\xfc\xff$?'
tbsV11b09ff9de7382d83f79cc81f89f5894
p1544
g3
(g4
(I0
tS'b'
tRp1545
(I1
(I3
tg7
I00
S'\x00\x00\x00@\x17\xd9.?\x17\xd9.?'
tbsV06a90409e4fcea3e634748b967993531
p1546
g3
(g4
(I0
tS'b'
tRp1547
(I1
(I3
tg7
I00
S'\x00\x00\xa0?\x04\x00+?\x04\x00+?'
tbsV2e59e2064d391f4b2587a08aff671399
p1548
g3
(g4
(I0
tS'b'
tRp1549
(I1
(I3
tg7
I00
S'\x00\x00 @\xf8\xff)?\xf8\xff)?'
tbsV169b5bde441e8aa3df2766e2e02cda08
p1550
g3
(g4
(I0
tS'b'
tRp1551
(I1
(I3
tg7
I00
S'\x00f\xe6?\x00\x806?\x00\x806?'
tbsVd36b2cb1cac4b31476c6f86eb1227d3c
p1552
g3
(g4
(I0
tS'b'
tRp1553
(I1
(I3
tg7
I00
S'\x00\x00\x00@\x00\x00!?\x00\x00!?'
tbsV4b2f615f5498ee9d935b0229a2e6bb19
p1554
g3
(g4
(I0
tS'b'
tRp1555
(I1
(I3
tg7
I00
S'\x00\x00 ?\x00\x00 ?\x00\x00 ?'
tbsVdcde02d4757bb845376fa6dbb0351df6
p1556
g3
(g4
(I0
tS'b'
tRp1557
(I1
(I3
tg7
I00
S'\x00\x00\x00@\xfe\x7f<?\xfe\x7f<?'
tbsV5b4f56936ab57ee5b30d8752652ee5cb
p1558
g3
(g4
(I0
tS'b'
tRp1559
(I1
(I3
tg7
I00
S'\x00\x00\x00@\xfc\xff$?\xfc\xff$?'
tbsVeaf753dc137e12fd06e96d27f3111043
p1560
g3
(g4
(I0
tS'b'
tRp1561
(I1
(I3
tg7
I00
S'\x00\x00\x00@\x00\x004?\x00\x004?'
tbsV4ecf053654c565e4a5d0f37811eade66
p1562
g3
(g4
(I0
tS'b'
tRp1563
(I1
(I3
tg7
I00
S'\x00f\xe6?\x00\x00\x16?\x00\x00\x16?'
tbsV9b797e680158d10e5ae2f9166c1dabb4
p1564
g3
(g4
(I0
tS'b'
tRp1565
(I1
(I3
tg7
I00
S'\x00\x00 @\xfa\x7f9?\xfa\x7f9?'
tbsVc8cfb917b0d619cb4e25f789db4641f8
p1566
g3
(g4
(I0
tS'b'
tRp1567
(I1
(I3
tg7
I00
S'\x00\x00 @\xf8\xff)?\xf8\xff)?'
tbsV2d596b6ead89ab35577fe625a9a17cbb
p1568
g3
(g4
(I0
tS'b'
tRp1569
(I1
(I3
tg7
I00
S'\x00d\xa6?\x00\x802?\x00\x802?'
tbsV9b871732b3935661e7639e84a6ab9747
p1570
g3
(g4
(I0
tS'b'
tRp1571
(I1
(I3
tg7
I00
S'\x00\x00\x00@#\xdb\x19?#\xdb\x19?'
tbsVb2f99ba5baa498246add63b1acf62cd4
p1572
g3
(g4
(I0
tS'b'
tRp1573
(I1
(I3
tg7
I00
S'\x00\x00\x00@\xf8\xff)?\xf8\xff)?'
tbsV1edf5480bf676f8342a7d516bab58fa0
p1574
g3
(g4
(I0
tS'b'
tRp1575
(I1
(I3
tg7
I00
S'\x00\x00\x00@\xfa\x7f\x1d?\xfa\x7f\x1d?'
tbsVef6a37afe024d33b4b1bb2fdee054a59
p1576
g3
(g4
(I0
tS'b'
tRp1577
(I1
(I3
tg7
I00
S'\x00\x00\x00@\xfe\x7f\x1c?\xfe\x7f\x1c?'
tbsV3c2dbbdeb857504a8b501fc013b99c90
p1578
g3
(g4
(I0
tS'b'
tRp1579
(I1
(I3
tg7
I00
S'\x00\x00\x00@\x00\x00/?\x00\x00/?'
tbsV23e309ef3a674bcd9c8df40614b93a8e
p1580
g3
(g4
(I0
tS'b'
tRp1581
(I1
(I3
tg7
I00
S'\x00f\xe6?\x00\x00*?\x00\x00*?'
tbsV07bca4290a2530091ce1d5f200d9d526
p1582
g3
(g4
(I0
tS'b'
tRp1583
(I1
(I3
tg7
I00
S'\x00\x00 @\x02\x80/?\x02\x80/?'
tbsV0fb1b54da1e66c60a57db9c52f945e25
p1584
g3
(g4
(I0
tS'b'
tRp1585
(I1
(I3
tg7
I00
S'\x00f\xe6?\x00\x00%?\x00\x00%?'
tbsV3b78adbbe463aba48bf29613ca37b2ea
p1586
g3
(g4
(I0
tS'b'
tRp1587
(I1
(I3
tg7
I00
S'\x00\x00\x00@\x00\x00 ?\x00\x00 ?'
tbsV1bb17a55702a78142cd05cd1063c82c8
p1588
g3
(g4
(I0
tS'b'
tRp1589
(I1
(I3
tg7
I00
S'\x00\x00\x00@\xfa\x7f)?\xfa\x7f)?'
tbsV234ac5dd589d09a4b2a753ff206d5588
p1590
g3
(g4
(I0
tS'b'
tRp1591
(I1
(I3
tg7
I00
S'\x00\x00\x00@\x00\x00 ?\x00\x00 ?'
tbsVa2558184e0f4a68e9fb13579d20cb244
p1592
g3
(g4
(I0
tS'b'
tRp1593
(I1
(I3
tg7
I00
S'\x00f\xe6?\x00\x00\x16?\x00\x00\x16?'
tbsV68a1f729eb1e2a791fe8170ac6631828
p1594
g3
(g4
(I0
tS'b'
tRp1595
(I1
(I3
tg7
I00
S'\x00\x00\x00@\x17\xd9.?\x17\xd9.?'
tbsV7faa456389e1ffde464819d0b1360188
p1596
g3
(g4
(I0
tS'b'
tRp1597
(I1
(I3
tg7
I00
S'\x00f\xe6?\x00\x00*?\x00\x00*?'
tbsV3fcfd27d83883f454ba2fe58dee4abea
p1598
g3
(g4
(I0
tS'b'
tRp1599
(I1
(I3
tg7
I00
S'\x00\x00 @\xfc\xff,?\xfc\xff,?'
tbsV5f19d1c7bd7ceb691639cab9c1c2cb19
p1600
g3
(g4
(I0
tS'b'
tRp1601
(I1
(I3
tg7
I00
S'\x00h\xe6?F\xb63?F\xb63?'
tbsV1a9e2aad4b87512636f4f9d82c36a3ef
p1602
g3
(g4
(I0
tS'b'
tRp1603
(I1
(I3
tg7
I00
S'\x00\x00\x00@\x04\x00+?\x04\x00+?'
tbsV75150225ab1f5d910bc64ad68ea4d221
p1604
g3
(g4
(I0
tS'b'
tRp1605
(I1
(I3
tg7
I00
S'\x00\x00 @\x00\x00 ?\x00\x00 ?'
tbsVefcb6def7a2080243052b6046186ab24
p1606
g3
(g4
(I0
tS'b'
tRp1607
(I1
(I3
tg7
I00
S'\x00\x00\x00@\xfa\x7f)?\xfa\x7f)?'
tbsVea3a771ef05e288409e0250ea893cf87
p1608
g3
(g4
(I0
tS'b'
tRp1609
(I1
(I3
tg7
I00
S'\x00\x00\x00@\x00\x004?\x00\x004?'
tbsV61917cf6407e793bc0edb60850009e85
p1610
g3
(g4
(I0
tS'b'
tRp1611
(I1
(I3
tg7
I00
S'\x00\x00\x80?\x00\x80\x1a?\x00\x80\x1a?'
tbsV2346e52f9370d9dd58172eb44b2b5d87
p1612
g3
(g4
(I0
tS'b'
tRp1613
(I1
(I3
tg7
I00
S'\x00\x00 @\x06\x80\x1a?\x06\x80\x1a?'
tbsVaec5a58fea38b77b964007aa6975c049
p1614
g3
(g4
(I0
tS'b'
tRp1615
(I1
(I3
tg7
I00
S'\x00\x00 ?\xfa\x7f\x19?\xfa\x7f\x19?'
tbsV281bb28a077ccfcd40ce4a543a5aea89
p1616
g3
(g4
(I0
tS'b'
tRp1617
(I1
(I3
tg7
I00
S'\x00\x00\x00@\x00\x004?\x00\x004?'
tbsV92d5f6230c3b6f6256e57d30981c1aaf
p1618
g3
(g4
(I0
tS'b'
tRp1619
(I1
(I3
tg7
I00
S'\x00\x00 @\xfc\xff\x10?\xfc\xff\x10?'
tbsV868b024d9fa388b7ddab12ec1c06af38
p1620
g3
(g4
(I0
tS'b'
tRp1621
(I1
(I3
tg7
I00
S'\x00\x00 @\x00\x00 ?\x00\x00 ?'
tbsVcbf5f53f3648de7d1324257caa40bb90
p1622
g3
(g4
(I0
tS'b'
tRp1623
(I1
(I3
tg7
I00
S'\x00\x00\xa0?\x00\x00\x10?\x00\x00\x10?'
tbsVf0310ffc724faf9f7aef2c418127ee68
p1624
g3
(g4
(I0
tS'b'
tRp1625
(I1
(I3
tg7
I00
S'\x00\x00\xa0?\x02\x807?\x02\x807?'
tbsV1b2355e6054759f2f0eb2542ed382b78
p1626
g3
(g4
(I0
tS'b'
tRp1627
(I1
(I3
tg7
I00
S'\x00\x00\x00@\x02\x80;?\x02\x80;?'
tbsV35b9a3e9871499893f76c8e6c648562c
p1628
g3
(g4
(I0
tS'b'
tRp1629
(I1
(I3
tg7
I00
S'\x00\x00\x00@\x00\x806?\x00\x806?'
tbsVae2fdcd8daa3fede6ae23cc63a8d9a82
p1630
g3
(g4
(I0
tS'b'
tRp1631
(I1
(I3
tg7
I00
S'\x00\x00 @\x00\x004?\x00\x004?'
tbsVe9ccf1ce85c39779fafb9ec703c71555
p1632
g3
(g4
(I0
tS'b'
tRp1633
(I1
(I3
tg7
I00
S'\x00\x00\xa0?\x08\x00\x16?\x08\x00\x16?'
tbsV61630ec628631f7fe3980f869e1a4fbe
p1634
g3
(g4
(I0
tS'b'
tRp1635
(I1
(I3
tg7
I00
S'\x00d\xe6?\x00\x009?\x00\x009?'
tbsV21cfe28c4a891795399bb77d63e939d7
p1636
g3
(g4
(I0
tS'b'
tRp1637
(I1
(I3
tg7
I00
S'\x00f\xe6?\x01\x00/?\x01\x00/?'
tbsVcdb53f3be6d8cce07fa41c833488d8a5
p1638
g3
(g4
(I0
tS'b'
tRp1639
(I1
(I3
tg7
I00
S'\x00\x00\x80?\x00\x00>?\x00\x00>?'
tbsVd68bfca920fd548909bd9c7eb5694b9d
p1640
g3
(g4
(I0
tS'b'
tRp1641
(I1
(I3
tg7
I00
S'\x00\x00\x00@\xf8\xff)?\xf8\xff)?'
tbsV76f36ea4858c572b425eb915e1b27c8d
p1642
g3
(g4
(I0
tS'b'
tRp1643
(I1
(I3
tg7
I00
S'\x00\x00\x00@\x00\x00*?\x00\x00*?'
tbsV538543b57d0c8fa0b2b6bb7c84df3f33
p1644
g3
(g4
(I0
tS'b'
tRp1645
(I1
(I3
tg7
I00
S'\x00f\xe6?\x00\x009?\x00\x009?'
tbsV5572cc61f851b0d10d6fec913ae722b9
p1646
g3
(g4
(I0
tS'b'
tRp1647
(I1
(I3
tg7
I00
S'\x00\x00\x00@\x01\x00\x07?\x01\x00\x07?'
tbsV5c69c62e94dde61c690563eb3553a561
p1648
g3
(g4
(I0
tS'b'
tRp1649
(I1
(I3
tg7
I00
S'\x00\x00\x00@\x00\x00H?\x00\x00H?'
tbsVb947a27711c94dda2d13e7410285cc0c
p1650
g3
(g4
(I0
tS'b'
tRp1651
(I1
(I3
tg7
I00
S'\x00\x00\x00@\x00\x009?\x00\x009?'
tbsVe5c68cfa0f33540da3098800f0daae2c
p1652
g3
(g4
(I0
tS'b'
tRp1653
(I1
(I3
tg7
I00
S'\x00\x00\x00@\x00\x00\x0c?\x00\x00\x0c?'
tbsVd81852bffda09dc8033a45332397c495
p1654
g3
(g4
(I0
tS'b'
tRp1655
(I1
(I3
tg7
I00
S'\x00\x00\x00@\x04\x00\x1b?\x04\x00\x1b?'
tbsV37dbe298bb4e0199625689cc35d390bb
p1656
g3
(g4
(I0
tS'b'
tRp1657
(I1
(I3
tg7
I00
S'\x00\x00\x80?\xf8\xff)?\xf8\xff)?'
tbsVc187d7be84f64e29e6623c15575f373f
p1658
g3
(g4
(I0
tS'b'
tRp1659
(I1
(I3
tg7
I00
S'\x00\x00\xc0?\x00\x00\x17?\x00\x00\x17?'
tbsVdcdf0b64b314e08e8f71f3bec9ecb080
p1660
g3
(g4
(I0
tS'b'
tRp1661
(I1
(I3
tg7
I00
S'\x00\x00\x00@\xff\xff$?\xff\xff$?'
tbsV2969c7ad0e550fee1f4a68fcb3bbb9e5
p1662
g3
(g4
(I0
tS'b'
tRp1663
(I1
(I3
tg7
I00
S'\x00\x00\xa0?\xf3\xff\xfa>\xf3\xff\xfa>'
tbsV66cef72d8428dbba31f2ab01abdaf6ca
p1664
g3
(g4
(I0
tS'b'
tRp1665
(I1
(I3
tg7
I00
S'\x00\x00 @\x00\x004?\x00\x004?'
tbsV3a78dcf53effd732bc3880c029154272
p1666
g3
(g4
(I0
tS'b'
tRp1667
(I1
(I3
tg7
I00
S'\x00\x00 @\x04\x00/?\x04\x00/?'
tbsVe38789c5eabb3005bfb82a5298055ba0
p1668
g3
(g4
(I0
tS'b'
tRp1669
(I1
(I3
tg7
I00
S'\x00\x00 @\x04\x00\x1b?\x04\x00\x1b?'
tbsV1b17c83c3b0cb973e41f9121e562d030
p1670
g3
(g4
(I0
tS'b'
tRp1671
(I1
(I3
tg7
I00
S'\x00\x00\x00@\xfa\x7fA?\xfa\x7fA?'
tbsV538600927ec2970552917a29b490b5fd
p1672
g3
(g4
(I0
tS'b'
tRp1673
(I1
(I3
tg7
I00
S'\x00\x00 @\x00\x004?\x00\x004?'
tbsV043ed6cb6054cc13804a3dca342fa4d0
p1674
g3
(g4
(I0
tS'b'
tRp1675
(I1
(I3
tg7
I00
S'\x00\x00\x00@\x8d\x97.?\x8d\x97.?'
tbsVc82d5bc4554358b1512f9f871822705b
p1676
g3
(g4
(I0
tS'b'
tRp1677
(I1
(I3
tg7
I00
S'\x00\x00\x00@\x19\x04\x16?\x19\x04\x16?'
tbsV2c06f5c66f3c79515b7712605dea4400
p1678
g3
(g4
(I0
tS'b'
tRp1679
(I1
(I3
tg7
I00
S'\x00\x00 @\xf8\xff)?\xf8\xff)?'
tbsV74b3ef4c2125d636980a19754702dbb9
p1680
g3
(g4
(I0
tS'b'
tRp1681
(I1
(I3
tg7
I00
S'\x00\x00\xa0?\x08\x00>?\x08\x00>?'
tbsV5791c42d317f34592be9a933c50e68ad
p1682
g3
(g4
(I0
tS'b'
tRp1683
(I1
(I3
tg7
I00
S'\x00\x00 @\x08\x00>?\x08\x00>?'
tbsV09b1c678fc1009d84a038cd879be4198
p1684
g3
(g4
(I0
tS'b'
tRp1685
(I1
(I3
tg7
I00
S'\x00\x00\x00@\xfc\xff$?\xfc\xff$?'
tbsV8a97ff581c17a49a3ef97144efde8a19
p1686
g3
(g4
(I0
tS'b'
tRp1687
(I1
(I3
tg7
I00
S'\x00\x00\x00@\x00\x00H?\x00\x00H?'
tbsVb5c041f7d841532ef778fd5e71309cc2
p1688
g3
(g4
(I0
tS'b'
tRp1689
(I1
(I3
tg7
I00
S'\x00f\xe6?\x00\x00>?\x00\x00>?'
tbsV9f12d2d6134af032932ed37776c6d09f
p1690
g3
(g4
(I0
tS'b'
tRp1691
(I1
(I3
tg7
I00
S'\x00\x98\xd9?\xcb\xa1%?\xcb\xa1%?'
tbsV7180c83eb184d5c9dfcbda228ab91213
p1692
g3
(g4
(I0
tS'b'
tRp1693
(I1
(I3
tg7
I00
S'\x00\x00\x00@\x00\x00 ?\x00\x00 ?'
tbsV844032970cb66839f748512acba0be8e
p1694
g3
(g4
(I0
tS'b'
tRp1695
(I1
(I3
tg7
I00
S'\x00\x00\x00@\xfe\x7f(?\xfe\x7f(?'
tbsVa70fd23bd8d535ffd42259cb91f4c5ca
p1696
g3
(g4
(I0
tS'b'
tRp1697
(I1
(I3
tg7
I00
S'\x00f\xe6?\x00\x00\x0e?\x00\x00\x0e?'
tbsVd6d5ed3055d084a6abf0f97af3fe2ff0
p1698
g3
(g4
(I0
tS'b'
tRp1699
(I1
(I3
tg7
I00
S'\x00\x00 @\x00\x004?\x00\x004?'
tbsVcf83e9933c484dd9073ed8314794b9f7
p1700
g3
(g4
(I0
tS'b'
tRp1701
(I1
(I3
tg7
I00
S'\x00\x00 @\x04\x00/?\x04\x00/?'
tbsV383c27906392e9ce57f6ab5ef1cb6f62
p1702
g3
(g4
(I0
tS'b'
tRp1703
(I1
(I3
tg7
I00
S'\x00\x00 @\x04\x00\x1f?\x04\x00\x1f?'
tbsVbd702368c252929cf701ad56ce64b6e1
p1704
g3
(g4
(I0
tS'b'
tRp1705
(I1
(I3
tg7
I00
S'\x00\x00\x00@\xfc\xff ?\xfc\xff ?'
tbsV668bb968918c63fad7d65581825b1048
p1706
g3
(g4
(I0
tS'b'
tRp1707
(I1
(I3
tg7
I00
S'\x00d\xe6?\x00\x004?\x00\x004?'
tbsV1c24a09fa32147d9083ff93f171e1102
p1708
g3
(g4
(I0
tS'b'
tRp1709
(I1
(I3
tg7
I00
S'\x00\x00\x00@\x00\x004?\x00\x004?'
tbsV9759889dcee7ed0043d06e03fb44060d
p1710
g3
(g4
(I0
tS'b'
tRp1711
(I1
(I3
tg7
I00
S'\x00\x00 @\x06\x80B?\x06\x80B?'
tbsV30b8aa7f5688cab5ff0964f34b715c4d
p1712
g3
(g4
(I0
tS'b'
tRp1713
(I1
(I3
tg7
I00
S'\x00\x00\x00@\x01\x00/?\x01\x00/?'
tbsV80bda1afde73204abd74d1ebd2758382
p1714
g3
(g4
(I0
tS'b'
tRp1715
(I1
(I3
tg7
I00
S'\x00\x00\xa0?\x00\x000?\x00\x000?'
tbsV93b60dbb5cc3fa4c4cc9247cb1143a09
p1716
g3
(g4
(I0
tS'b'
tRp1717
(I1
(I3
tg7
I00
S'\x00\x00\x00@\x04\x00;?\x04\x00;?'
tbsVcc24c86f88a9d17c04255a4d264030e6
p1718
g3
(g4
(I0
tS'b'
tRp1719
(I1
(I3
tg7
I00
S'\x00\x00\x00@\x00\x00\x0c?\x00\x00\x0c?'
tbsV73b28e2eadad587c9a8ac6c7186dd51b
p1720
g3
(g4
(I0
tS'b'
tRp1721
(I1
(I3
tg7
I00
S'\x00\x00\x00@\x00\x00/?\x00\x00/?'
tbsVdf75d5a21b4289e8df6e2d0e135ac48f
p1722
g3
(g4
(I0
tS'b'
tRp1723
(I1
(I3
tg7
I00
S'\x00\x00\x00@\xfc\xff$?\xfc\xff$?'
tbsV7869cc6bfc3678fec1a81e93b34648cf
p1724
g3
(g4
(I0
tS'b'
tRp1725
(I1
(I3
tg7
I00
S'\x00\x00\x00@\x00\x00*?\x00\x00*?'
tbsVbca9f24f465ae61a03e35a1f682270bd
p1726
g3
(g4
(I0
tS'b'
tRp1727
(I1
(I3
tg7
I00
S'\x00\x00 @\xf8\xff)?\xf8\xff)?'
tbsV1c05dea5723caf192af34ceb5804468f
p1728
g3
(g4
(I0
tS'b'
tRp1729
(I1
(I3
tg7
I00
S'\x00\x00\x80?\x00\x00H?\x00\x00H?'
tbsVedae2e1edd1217d0c9e20eff2a7b2dd8
p1730
g3
(g4
(I0
tS'b'
tRp1731
(I1
(I3
tg7
I00
S'\x00\x00\x00@\x08\x00\x16?\x08\x00\x16?'
tbsV4bf6fb574a2ca2da551609e98a573e54
p1732
g3
(g4
(I0
tS'b'
tRp1733
(I1
(I3
tg7
I00
S'\x00\x00\x80?\x02\x80+?\x02\x80+?'
tbsVb06ccf39536d0e3e0e8c78ba599ed23b
p1734
g3
(g4
(I0
tS'b'
tRp1735
(I1
(I3
tg7
I00
S'\x00\x00\xc0?\x00\x00-?\x00\x00-?'
tbsVbf56e271a2aa37625192954157e9f64d
p1736
g3
(g4
(I0
tS'b'
tRp1737
(I1
(I3
tg7
I00
S'\x00\x00\xa0?\xfa\x7f1?\xfa\x7f1?'
tbsV9a3174ffe867f602ee82c512a01420ee
p1738
g3
(g4
(I0
tS'b'
tRp1739
(I1
(I3
tg7
I00
S'\x00h\xa6?\x00\x80*?\x00\x80*?'
tbsV2a6433cf347f7bd52ab796f083003832
p1740
g3
(g4
(I0
tS'b'
tRp1741
(I1
(I3
tg7
I00
S'@f\xe6?\x00\x00>?\x00\x00>?'
tbsVbaafc60a08ae90052fd44eb78a21cfbf
p1742
g3
(g4
(I0
tS'b'
tRp1743
(I1
(I3
tg7
I00
S'\x00\x00\x80?\x00\x00@?\x00\x00@?'
tbsV79e7773230a96a6789c2c64ec39312cb
p1744
g3
(g4
(I0
tS'b'
tRp1745
(I1
(I3
tg7
I00
S'\x00f\xe6?\x01\x00C?\x01\x00C?'
tbsVa7293f9b20e715fc78cc0b09a4feab01
p1746
g3
(g4
(I0
tS'b'
tRp1747
(I1
(I3
tg7
I00
S'\x00\x00\x00@\x00\x001?\x00\x001?'
tbsV6171d57221e26d1f15d3c71fe966ab18
p1748
g3
(g4
(I0
tS'b'
tRp1749
(I1
(I3
tg7
I00
S'\x00\x00\xa0?\x00\x004?\x00\x004?'
tbsVb6857d98b7b3dbe84f153617f4dfd14b
p1750
g3
(g4
(I0
tS'b'
tRp1751
(I1
(I3
tg7
I00
S'\x00\x00\x00@\xff\xff@?\xff\xff@?'
tbsV6c56e9802fb6346db58bd5daf160f9be
p1752
g3
(g4
(I0
tS'b'
tRp1753
(I1
(I3
tg7
I00
S'\x00D\xe6?F\xb63?F\xb63?'
tbsVc0f2e3b499d10d147892579d0ad71321
p1754
g3
(g4
(I0
tS'b'
tRp1755
(I1
(I3
tg7
I00
S'\x00\x00\x00@\x00\x00\x1c?\x00\x00\x1c?'
tbsV17ffaa3e8b53cc48e97fc6b87114e6dd
p1756
g3
(g4
(I0
tS'b'
tRp1757
(I1
(I3
tg7
I00
S'\x00\x00\x00@\xf8\xff)?\xf8\xff)?'
tbsVe1f3a01e73d706b7e9c30c0a17a4c0b5
p1758
g3
(g4
(I0
tS'b'
tRp1759
(I1
(I3
tg7
I00
S'\x00f\xe6?\x00\x004?\x00\x004?'
tbsVa784a51caee14229d46777f2a9770a5f
p1760
g3
(g4
(I0
tS'b'
tRp1761
(I1
(I3
tg7
I00
S'\x00\x00\x00@\x00\x004?\x00\x004?'
tbsV1acbe17dc8f9f59d2fd167b2aa6c650f
p1762
g3
(g4
(I0
tS'b'
tRp1763
(I1
(I3
tg7
I00
S'\x00f\xe6?\x00\x009?\x00\x009?'
tbsVbbe21f027a1df4b07016b474b48d3f65
p1764
g3
(g4
(I0
tS'b'
tRp1765
(I1
(I3
tg7
I00
S'\x00\x00 @\x00\x004?\x00\x004?'
tbsV07abb7bec548d1c0ccef088ce934e517
p1766
g3
(g4
(I0
tS'b'
tRp1767
(I1
(I3
tg7
I00
S'\x00\x00\x80?\x00\x00&?\x00\x00&?'
tbsVa998534bc46d3041e00c67f44a3e0352
p1768
g3
(g4
(I0
tS'b'
tRp1769
(I1
(I3
tg7
I00
S'\x00f\xe6?\x00\x009?\x00\x009?'
tbsV01e349d34c06410e1da273add27be25c
p1770
g3
(g4
(I0
tS'b'
tRp1771
(I1
(I3
tg7
I00
S'\x00\x00\x00@\x00\x00*?\x00\x00*?'
tbsVc67e799bcc1e2635eb9164f6e8cf75f3
p1772
g3
(g4
(I0
tS'b'
tRp1773
(I1
(I3
tg7
I00
S'\x00\x00 ?\xf8\xff\x19?\xf8\xff\x19?'
tbsVf77fd9fd7966b346ce8e7efcb96c7c53
p1774
g3
(g4
(I0
tS'b'
tRp1775
(I1
(I3
tg7
I00
S'\x00\x00\x00@\x00\x004?\x00\x004?'
tbsVa9c1d12dabcd5f5b13d2aad47e443684
p1776
g3
(g4
(I0
tS'b'
tRp1777
(I1
(I3
tg7
I00
S"\x00\x00\x00@\x00\x80'?\x00\x80'?"
tbsVe6d8b2631843a24e6761f2723ea30788
p1778
g3
(g4
(I0
tS'b'
tRp1779
(I1
(I3
tg7
I00
S'\x00\x00\x00@\x00\x004?\x00\x004?'
tbsVbe9a2df5a16434e581c6a0625c290591
p1780
g3
(g4
(I0
tS'b'
tRp1781
(I1
(I3
tg7
I00
S'\x00\x00\x00@\x08\x00\x1e?\x08\x00\x1e?'
tbsV6d3b16f2e60c3a1a4246f340dba73676
p1782
g3
(g4
(I0
tS'b'
tRp1783
(I1
(I3
tg7
I00
S'\x00\x00\x00@\x00\x000?\x00\x000?'
tbsV03bd22ed5858039af223c04993e9eb22
p1784
g3
(g4
(I0
tS'b'
tRp1785
(I1
(I3
tg7
I00
S'\x00\x00\x00@\x00\x00>?\x00\x00>?'
tbsVc05acf3bd59f5570783138c01b737c3d
p1786
g3
(g4
(I0
tS'b'
tRp1787
(I1
(I3
tg7
I00
S'\x00\x00\xa0?\xf8\xff)?\xf8\xff)?'
tbsV379d84cd171e6c0e58455c2fd0cf57ef
p1788
g3
(g4
(I0
tS'b'
tRp1789
(I1
(I3
tg7
I00
S'\x00\x00 @\x06\x80B?\x06\x80B?'
tbsV5ae03fb6d9959aa93d1177cfd70cf760
p1790
g3
(g4
(I0
tS'b'
tRp1791
(I1
(I3
tg7
I00
S'\x00\x00\x00@\x08\x00&?\x08\x00&?'
tbsVd7713d80767cfdaad5e3db537849d8d0
p1792
g3
(g4
(I0
tS'b'
tRp1793
(I1
(I3
tg7
I00
S'\x00\xbc\xd9?\x00\x00 ?\x00\x00 ?'
tbsV8be7a7cc747365030bee8297221ab5bc
p1794
g3
(g4
(I0
tS'b'
tRp1795
(I1
(I3
tg7
I00
S'\x00f\xe6?\x00\x00\x12?\x00\x00\x12?'
tbsV1753250dab5fc81bab8280df13309733
p1796
g3
(g4
(I0
tS'b'
tRp1797
(I1
(I3
tg7
I00
S'\x00\x00 @\x04\x00\x1b?\x04\x00\x1b?'
tbsV91d29bc19205f8eb9a63de5b774a5575
p1798
g3
(g4
(I0
tS'b'
tRp1799
(I1
(I3
tg7
I00
S'\x00\x00\xa0?\x00\x004?\x00\x004?'
tbsVd92998a73d4654a442e6d6ba15bbb827
p1800
g3
(g4
(I0
tS'b'
tRp1801
(I1
(I3
tg7
I00
S'\x00\x00 @\xfc\xff$?\xfc\xff$?'
tbsV2e8bb42ed99b2bd1d9cd3ffaf5129e4c
p1802
g3
(g4
(I0
tS'b'
tRp1803
(I1
(I3
tg7
I00
S'\x00\x00\xa0?\x08\x00>?\x08\x00>?'
tbsVcf0a772e90a14d77d664ce9baedf0e5c
p1804
g3
(g4
(I0
tS'b'
tRp1805
(I1
(I3
tg7
I00
S'\x00\x00\x00@\xfa\x7f\r?\xfa\x7f\r?'
tbsVabc526fd74d0fdd73772bc6867bc38a4
p1806
g3
(g4
(I0
tS'b'
tRp1807
(I1
(I3
tg7
I00
S'\x00\x00 @\xf8\xff)?\xf8\xff)?'
tbsV9139a5b2f18c79a75c2d8ee817cc2495
p1808
g3
(g4
(I0
tS'b'
tRp1809
(I1
(I3
tg7
I00
S'\x00\x00\x00@\x02\x80\x0f?\x02\x80\x0f?'
tbsVbe4285333fb2d56f78ca867d97eee308
p1810
g3
(g4
(I0
tS'b'
tRp1811
(I1
(I3
tg7
I00
S'\x00\x00\x00@\x00\x00>?\x00\x00>?'
tbsVa0cdb677841933136fd15257e3c47fe6
p1812
g3
(g4
(I0
tS'b'
tRp1813
(I1
(I3
tg7
I00
S'\x00\x00\x00@\x00\x004?\x00\x004?'
tbsVd244870d213a21efa86e86c951d8c9a2
p1814
g3
(g4
(I0
tS'b'
tRp1815
(I1
(I3
tg7
I00
S'\x00h\xa6?\x00\x80\x07?\x00\x80\x07?'
tbsV9db8f95c3240b79c32af0c0bd367dd91
p1816
g3
(g4
(I0
tS'b'
tRp1817
(I1
(I3
tg7
I00
S'\x00\x00\x00@\x04\x00/?\x04\x00/?'
tbsV4d207541fac845d1a369a160f15d55e6
p1818
g3
(g4
(I0
tS'b'
tRp1819
(I1
(I3
tg7
I00
S'\x00\x00\x00@\xfc\xff\x04?\xfc\xff\x04?'
tbsV5275c7ec0f1d80c829611c378708c05b
p1820
g3
(g4
(I0
tS'b'
tRp1821
(I1
(I3
tg7
I00
S'\x00f\xe6?\x00\x00\x04?\x00\x00\x04?'
tbsV505405b3e70fb24b92e6a8a5b7ed339c
p1822
g3
(g4
(I0
tS'b'
tRp1823
(I1
(I3
tg7
I00
S'\x00\x00 @\x04\x00C?\x04\x00C?'
tbsV72ed4046708e5607eb0a5703905438ee
p1824
g3
(g4
(I0
tS'b'
tRp1825
(I1
(I3
tg7
I00
S'\x00\x00\x00@\xfc\xff$?\xfc\xff$?'
tbsVcbb9bbd994c235b56fb77429291edf99
p1826
g3
(g4
(I0
tS'b'
tRp1827
(I1
(I3
tg7
I00
S'\x00\x00\xc0?\x00\x00Q?\x00\x00Q?'
tbsV1631637f08f27347e8f23d7a0e18c100
p1828
g3
(g4
(I0
tS'b'
tRp1829
(I1
(I3
tg7
I00
S'\x00\x00 @\x00\x004?\x00\x004?'
tbsV597643aa6bb96b705eac52e03a307d6d
p1830
g3
(g4
(I0
tS'b'
tRp1831
(I1
(I3
tg7
I00
S'\x00\x00\x00@\x00\x005?\x00\x005?'
tbsV1615ace332b9d79be4e0e9fa32c71e9e
p1832
g3
(g4
(I0
tS'b'
tRp1833
(I1
(I3
tg7
I00
S'\x00\x00\x00@\x00\x004?\x00\x004?'
tbsVe127111e994be5f79bb0cea52c9d563e
p1834
g3
(g4
(I0
tS'b'
tRp1835
(I1
(I3
tg7
I00
S'\x00\x00\x00@\x00\x004?\x00\x004?'
tbsV96cca9d8e5764daa4bcb6c0ba07735bc
p1836
g3
(g4
(I0
tS'b'
tRp1837
(I1
(I3
tg7
I00
S'\x00\x00\x00@\xf8\xff)?\xf8\xff)?'
tbsV6c1136ce7fbc5c7b503aa08da6abedd2
p1838
g3
(g4
(I0
tS'b'
tRp1839
(I1
(I3
tg7
I00
S'\x00\x00\x00@\x00\x00\x0c?\x00\x00\x0c?'
tbsVbd5bc5a0328033ae48da9e5891704c1b
p1840
g3
(g4
(I0
tS'b'
tRp1841
(I1
(I3
tg7
I00
S'\x00\x00\x00@\x00\x004?\x00\x004?'
tbsV1dab3271160e1380c5a70a1e3ba40cb7
p1842
g3
(g4
(I0
tS'b'
tRp1843
(I1
(I3
tg7
I00
S'\x00\x00\xa0?\xf8\xff)?\xf8\xff)?'
tbsV504e447ad62ea9ebb283873e044b5dd2
p1844
g3
(g4
(I0
tS'b'
tRp1845
(I1
(I3
tg7
I00
S'\x00\x00\x00@\x04\x00\x1f?\x04\x00\x1f?'
tbsV0e7ffa620c6db473b70c8454f215306b
p1846
g3
(g4
(I0
tS'b'
tRp1847
(I1
(I3
tg7
I00
S'\x00\x00 @\xf8\xff)?\xf8\xff)?'
tbsV432f8765e6b590ec00cc34c8d88456da
p1848
g3
(g4
(I0
tS'b'
tRp1849
(I1
(I3
tg7
I00
S"\x00\x00 @\x04\x00'?\x04\x00'?"
tbsVd3a8fb1da8f7a0dcbd5a8d65f3647757
p1850
g3
(g4
(I0
tS'b'
tRp1851
(I1
(I3
tg7
I00
S'\x00\x00 @\x00\x004?\x00\x004?'
tbsV67e87fa621f2e3e838b1b17a898d5b41
p1852
g3
(g4
(I0
tS'b'
tRp1853
(I1
(I3
tg7
I00
S'\x00\x00 @\x04\x00\x1b?\x04\x00\x1b?'
tbsVf25c425c827b35fcbaa23f2ed671540b
p1854
g3
(g4
(I0
tS'b'
tRp1855
(I1
(I3
tg7
I00
S'\x00\x00 @\xfc\xff$?\xfc\xff$?'
tbsV220223b46a23db0e2b0577170936845d
p1856
g3
(g4
(I0
tS'b'
tRp1857
(I1
(I3
tg7
I00
S'\x00\x00\x80?\xfa\x7fA?\xfa\x7fA?'
tbsVd74af71db9023b65737ee37ede219422
p1858
g3
(g4
(I0
tS'b'
tRp1859
(I1
(I3
tg7
I00
S'\x00\x00\x00@\x00\x00>?\x00\x00>?'
tbsV3f28787cc3343445a8c5ecc4dae27a25
p1860
g3
(g4
(I0
tS'b'
tRp1861
(I1
(I3
tg7
I00
S'\x00\x00\x00@\x02\x80\x1b?\x02\x80\x1b?'
tbsV2b861ff187c8ff2977d988f3d8b08d87
p1862
g3
(g4
(I0
tS'b'
tRp1863
(I1
(I3
tg7
I00
S'\x00\x00 @\xfc\xff\x10?\xfc\xff\x10?'
tbsVe314fd13809db0132443b924401d828b
p1864
g3
(g4
(I0
tS'b'
tRp1865
(I1
(I3
tg7
I00
S'\x00\x00\x00@\xfa\x7f\x15?\xfa\x7f\x15?'
tbsV49b5b3444cf977439600dd06e8dd84ad
p1866
g3
(g4
(I0
tS'b'
tRp1867
(I1
(I3
tg7
I00
S'\x00\x00\x00@\x87\x169?\x87\x169?'
tbsV9ca18e68b6b8d9c3112b4b69b7d6fad5
p1868
g3
(g4
(I0
tS'b'
tRp1869
(I1
(I3
tg7
I00
S'\x00\x00 @\x08\x00\x16?\x08\x00\x16?'
tbsV809ae218d8b4a973d11358264e4a0823
p1870
g3
(g4
(I0
tS'b'
tRp1871
(I1
(I3
tg7
I00
S'\x00\x00\x80?\x00\x00H?\x00\x00H?'
tbsV14c534e0b7c3176d9106c6215d0aa8c6
p1872
g3
(g4
(I0
tS'b'
tRp1873
(I1
(I3
tg7
I00
S'\x00h\xe6?\x00\x00*?\x00\x00*?'
tbsV28621a6988deb389673605447f46d3bb
p1874
g3
(g4
(I0
tS'b'
tRp1875
(I1
(I3
tg7
I00
S'\x00\x00\xa0?\x06\x80\x12?\x06\x80\x12?'
tbsVc0f0eb84e70b19544943bed0ea6bd374
p1876
g3
(g4
(I0
tS'b'
tRp1877
(I1
(I3
tg7
I00
S'\x00\x00\x00@\x00\x00/?\x00\x00/?'
tbsV86b3b918b2ad15df1133b52f418a7386
p1878
g3
(g4
(I0
tS'b'
tRp1879
(I1
(I3
tg7
I00
S'\x00\x00 @\x04\x00\x1b?\x04\x00\x1b?'
tbsV91ee390b30927af8804d1f2adf2aefa8
p1880
g3
(g4
(I0
tS'b'
tRp1881
(I1
(I3
tg7
I00
S'\x00\x00\x00@\x00\x004?\x00\x004?'
tbsV4aa3131e76b28e30235664087407edc3
p1882
g3
(g4
(I0
tS'b'
tRp1883
(I1
(I3
tg7
I00
S'\x00\x00\xc0?\x00\x00\x17?\x00\x00\x17?'
tbsV8a1e5830a16db34b580202f8b6dbbd3d
p1884
g3
(g4
(I0
tS'b'
tRp1885
(I1
(I3
tg7
I00
S'\x00\x00\xa0?\x00\x00H?\x00\x00H?'
tbsVcd104ad99d5b939b6bdd28b154e28085
p1886
g3
(g4
(I0
tS'b'
tRp1887
(I1
(I3
tg7
I00
S'\x00\x00\x00@\x08\x00>?\x08\x00>?'
tbsVaadd54d387e9be8fab53507c4cedf338
p1888
g3
(g4
(I0
tS'b'
tRp1889
(I1
(I3
tg7
I00
S'\x00\x00\xa0?\x00\x004?\x00\x004?'
tbsVbdb59c956d48bc1a263acf997926c4d3
p1890
g3
(g4
(I0
tS'b'
tRp1891
(I1
(I3
tg7
I00
S'\x00\x00\x00@\x00\x00)?\x00\x00)?'
tbsVc645eb8b7b7225457e61cf511a8e46e5
p1892
g3
(g4
(I0
tS'b'
tRp1893
(I1
(I3
tg7
I00
S'\x00\x00\x00@\x04\x00/?\x04\x00/?'
tbsVabc4cfb4ac045b4f9a74e2dbb18f8193
p1894
g3
(g4
(I0
tS'b'
tRp1895
(I1
(I3
tg7
I00
S'\x00\x00 @\x00\x004?\x00\x004?'
tbsVe977737394cee9abb19ad07310aae8eb
p1896
g3
(g4
(I0
tS'b'
tRp1897
(I1
(I3
tg7
I00
S'\x00\x00\xa0?\xf8\xff)?\xf8\xff)?'
tbsV61ce76681b4a68b8d0f3b724c1e844b3
p1898
g3
(g4
(I0
tS'b'
tRp1899
(I1
(I3
tg7
I00
S'\x00\x00\x00@\x08\x00\x16?\x08\x00\x16?'
tbsV494b9a6714921a446b32959ca291b050
p1900
g3
(g4
(I0
tS'b'
tRp1901
(I1
(I3
tg7
I00
S'\x00\x00\xa0?\x02\x807?\x02\x807?'
tbsV7f524231183ed193b8f2e3d9cc73c059
p1902
g3
(g4
(I0
tS'b'
tRp1903
(I1
(I3
tg7
I00
S'\x00f\xe6?\x00\x00\x0c?\x00\x00\x0c?'
tbsVe7d76f0723911280b64f0f83a4990c97
p1904
g3
(g4
(I0
tS'b'
tRp1905
(I1
(I3
tg7
I00
S'\x00\x00\x00@\x00\x004?\x00\x004?'
tbsV4434e19303b62ebaecef2596583ff351
p1906
g3
(g4
(I0
tS'b'
tRp1907
(I1
(I3
tg7
I00
S'\x00\x00\xa0?\xf8\xff!?\xf8\xff!?'
tbsV8cb4c49a88d8ecb99d97cf5d707d58d7
p1908
g3
(g4
(I0
tS'b'
tRp1909
(I1
(I3
tg7
I00
S'\x00\x00 @\x04\x00C?\x04\x00C?'
tbsVd8ed783494996f55a587270a212f7d5b
p1910
g3
(g4
(I0
tS'b'
tRp1911
(I1
(I3
tg7
I00
S'\x00\x00\x00@\x00\x808?\x00\x808?'
tbsV3a1a293ecad44010da9907bfc91d94cd
p1912
g3
(g4
(I0
tS'b'
tRp1913
(I1
(I3
tg7
I00
S'\x00\x00\x00@\x06\x80&?\x06\x80&?'
tbsVf6a9611b3afd5c6a5fb4a718cd2c38c2
p1914
g3
(g4
(I0
tS'b'
tRp1915
(I1
(I3
tg7
I00
S'\x00\x00\x00@\xfa\x7f\x1d?\xfa\x7f\x1d?'
tbsV154a79706bcecd0402b913d4bee9eed7
p1916
g3
(g4
(I0
tS'b'
tRp1917
(I1
(I3
tg7
I00
S'\x00\x00\x00@\x00\x00>?\x00\x00>?'
tbsV01de8323fa065a8963533c4a86f2f6c1
p1918
g3
(g4
(I0
tS'b'
tRp1919
(I1
(I3
tg7
I00
S'\x00\x00\xa0?\xfa\x7f)?\xfa\x7f)?'
tbsV567547810a1795b9c8e11c15dfd32c34
p1920
g3
(g4
(I0
tS'b'
tRp1921
(I1
(I3
tg7
I00
S'\x00\x00\xa0?\xf8\xff)?\xf8\xff)?'
tbsVa79e929f408cf0fe31f8e3a0904b6d93
p1922
g3
(g4
(I0
tS'b'
tRp1923
(I1
(I3
tg7
I00
S'\x00f\xe6?\x01\x00/?\x01\x00/?'
tbsVb5de57869d863bdc1b84b0194e79a9d3
p1924
g3
(g4
(I0
tS'b'
tRp1925
(I1
(I3
tg7
I00
S'\x00\x00\x00@\x00\x00 ?\x00\x00 ?'
tbsV580cffecce8d3d53cde1abb922adf21a
p1926
g3
(g4
(I0
tS'b'
tRp1927
(I1
(I3
tg7
I00
S'\x00\x00\x00@\x08\x00*?\x08\x00*?'
tbsV352c23fe8a3d0640ea531a6bf223732c
p1928
g3
(g4
(I0
tS'b'
tRp1929
(I1
(I3
tg7
I00
S'\x00\x00\x00@\x06\x80\x1a?\x06\x80\x1a?'
tbsV648c99653d512edc1d28dd8e7054ceab
p1930
g3
(g4
(I0
tS'b'
tRp1931
(I1
(I3
tg7
I00
S'\x00\x00 ?\x00\x80G?\x00\x80G?'
tbsV07349deeea878c723317a1ce42cc7e58
p1932
g3
(g4
(I0
tS'b'
tRp1933
(I1
(I3
tg7
I00
S'\x00\x00\x00@\x00\x000?\x00\x000?'
tbsVb51f22a84cd2fae1de8bd1eb155933f7
p1934
g3
(g4
(I0
tS'b'
tRp1935
(I1
(I3
tg7
I00
S'\x00\x00 @\x08\x00\x16?\x08\x00\x16?'
tbsVcd10ceca9862ba0cc2ffd0ed8c9b055c
p1936
g3
(g4
(I0
tS'b'
tRp1937
(I1
(I3
tg7
I00
S'\x00g\xe6?\x00\x00*?\x00\x00*?'
tbsVc24dfc6534bc563d5aecb1513fea8f7f
p1938
g3
(g4
(I0
tS'b'
tRp1939
(I1
(I3
tg7
I00
S'\x00\x00\x00@\x00\x004?\x00\x004?'
tbsV6d38cc9a6de069570a5d2efbb55a7f63
p1940
g3
(g4
(I0
tS'b'
tRp1941
(I1
(I3
tg7
I00
S'\x00f\xe6?\x00\x00,?\x00\x00,?'
tbsV4dbda61d574417c7f25d6e9a8f0749a7
p1942
g3
(g4
(I0
tS'b'
tRp1943
(I1
(I3
tg7
I00
S'\x00\x00 @\x00\x004?\x00\x004?'
tbsV8987df2216ae2ab1a907d52bc9dc540d
p1944
g3
(g4
(I0
tS'b'
tRp1945
(I1
(I3
tg7
I00
S'\x00\x00 @\x04\x00/?\x04\x00/?'
tbsV404e5dd2b032a223282f5a5e73c05418
p1946
g3
(g4
(I0
tS'b'
tRp1947
(I1
(I3
tg7
I00
S'\x00h\xa6?\x00\x00\x0f?\x00\x00\x0f?'
tbsV8b6e16b4e1d1400452956578f8eb97c4
p1948
g3
(g4
(I0
tS'b'
tRp1949
(I1
(I3
tg7
I00
S'\x00\x00\x00@{\x14.?{\x14.?'
tbsV60a4915d8662dff30dc596ebccb83b3c
p1950
g3
(g4
(I0
tS'b'
tRp1951
(I1
(I3
tg7
I00
S'\x00f\xe6?\x00\x00\x1b?\x00\x00\x1b?'
tbsVd5a0333be8795805fc39509f817780ee
p1952
g3
(g4
(I0
tS'b'
tRp1953
(I1
(I3
tg7
I00
S'\x00\x00 @\x04\x00\x07?\x04\x00\x07?'
tbsVbbf958c2331a553d5699a1369b7f2bbf
p1954
g3
(g4
(I0
tS'b'
tRp1955
(I1
(I3
tg7
I00
S'\x00f\xe6?\xff\xff8?\xff\xff8?'
tbsV8b9a28375988de6ea0b143d48b4a8dc9
p1956
g3
(g4
(I0
tS'b'
tRp1957
(I1
(I3
tg7
I00
S'\x00\x00\x00@\x06\x80.?\x06\x80.?'
tbsV9fc639cbbd749117de4980420ae52cf3
p1958
g3
(g4
(I0
tS'b'
tRp1959
(I1
(I3
tg7
I00
S'\x00\x00\x00@\xf8\xff)?\xf8\xff)?'
tbsV5f383eb9c3d8ea72ddec7e2e874d577d
p1960
g3
(g4
(I0
tS'b'
tRp1961
(I1
(I3
tg7
I00
S'\x00f\xe6?\x00\x00\x19?\x00\x00\x19?'
tbsV5a2e359e859d0b0d7c159fff87950852
p1962
g3
(g4
(I0
tS'b'
tRp1963
(I1
(I3
tg7
I00
S'\x00\x00 @\xfc\xff$?\xfc\xff$?'
tbsVb4581f4f4cad292b5a013d35d1c39f24
p1964
g3
(g4
(I0
tS'b'
tRp1965
(I1
(I3
tg7
I00
S'\x00\x00 @\x08\x00\x16?\x08\x00\x16?'
tbsVe4a87107f94e4a8e32b735d18cef1137
p1966
g3
(g4
(I0
tS'b'
tRp1967
(I1
(I3
tg7
I00
S'\x00\x00\x00@\xfc\xff\x14?\xfc\xff\x14?'
tbsV155893351afed6c68893397d19555fd8
p1968
g3
(g4
(I0
tS'b'
tRp1969
(I1
(I3
tg7
I00
S'\x00f\xe6?\x00\x009?\x00\x009?'
tbsVa3cb12d3b8d5c64fa55f27208fe13a07
p1970
g3
(g4
(I0
tS'b'
tRp1971
(I1
(I3
tg7
I00
S'\x00d\xa6?\x00\x00\x0b?\x00\x00\x0b?'
tbsV53087ef723e2433ad0b8041e408c6f8c
p1972
g3
(g4
(I0
tS'b'
tRp1973
(I1
(I3
tg7
I00
S'\x00\x00 @\xfc\xff\x10?\xfc\xff\x10?'
tbsVd1a20ef45bb03f93a407b492066f6d88
p1974
g3
(g4
(I0
tS'b'
tRp1975
(I1
(I3
tg7
I00
S'\x00\x00\x00@\x00\x00>?\x00\x00>?'
tbsVa73f098ed638571f8db71a20e1551875
p1976
g3
(g4
(I0
tS'b'
tRp1977
(I1
(I3
tg7
I00
S'\x00\x00\x00@\x00\x00K?\x00\x00K?'
tbsV6969c031ee0c34053faff3aac9dd2da7
p1978
g3
(g4
(I0
tS'b'
tRp1979
(I1
(I3
tg7
I00
S'\x00\x00\x00@\x00\x00\x11?\x00\x00\x11?'
tbsV5da3dd09c0d0d597287a9a1046cced37
p1980
g3
(g4
(I0
tS'b'
tRp1981
(I1
(I3
tg7
I00
S'\x00\x00\x00@\x04\x00C?\x04\x00C?'
tbsVb8bb02d229361a623a4dc57aa0e5c485
p1982
g3
(g4
(I0
tS'b'
tRp1983
(I1
(I3
tg7
I00
S'\x00\x00 @\x00\x00\x0c?\x00\x00\x0c?'
tbsVc4c801ae039ba335fa32df7d84e4decb
p1984
g3
(g4
(I0
tS'b'
tRp1985
(I1
(I3
tg7
I00
S'\x00\x00\xc0?\x00\x00\x17?\x00\x00\x17?'
tbsVf43843b39a5be8cd30dab59bd11499ed
p1986
g3
(g4
(I0
tS'b'
tRp1987
(I1
(I3
tg7
I00
S'\x00\x00\x80?\xf8\xff\x11?\xf8\xff\x11?'
tbsV37006435aca7184571bba3c907141e82
p1988
g3
(g4
(I0
tS'b'
tRp1989
(I1
(I3
tg7
I00
S'\x00\x00 @\xfc\xff\x10?\xfc\xff\x10?'
tbsV174c5f7c33ca31443208ef873b9477e5
p1990
g3
(g4
(I0
tS'b'
tRp1991
(I1
(I3
tg7
I00
S'\x00f\xe6?\x00\x00*?\x00\x00*?'
tbsV8f0c4220a437192a30ae06d82bf78885
p1992
g3
(g4
(I0
tS'b'
tRp1993
(I1
(I3
tg7
I00
S'\x00\x00\x00@\x00\x00E?\x00\x00E?'
tbsV204bdd4a15f023eea66190972b66fd0f
p1994
g3
(g4
(I0
tS'b'
tRp1995
(I1
(I3
tg7
I00
S'\x00\x00\x00@\x00\x80\x1c?\x00\x80\x1c?'
tbsV9c779a4e5e56c77131f8e99d5eacb766
p1996
g3
(g4
(I0
tS'b'
tRp1997
(I1
(I3
tg7
I00
S'\x00\x00\x00@\x00\x00 ?\x00\x00 ?'
tbsV2f4645c27f9806daffe7e9d013b4b7eb
p1998
g3
(g4
(I0
tS'b'
tRp1999
(I1
(I3
tg7
I00
S'\x00f\xe6?\x00\x00\x0c?\x00\x00\x0c?'
tbsVb8793dbd40de88c0de0913abbaab0fe7
p2000
g3
(g4
(I0
tS'b'
tRp2001
(I1
(I3
tg7
I00
S'\x00\x00\xa0?\x02\x80\x17?\x02\x80\x17?'
tbsV665c1913d8e90e57af3b745349d19537
p2002
g3
(g4
(I0
tS'b'
tRp2003
(I1
(I3
tg7
I00
S'\x00\x00\x00@7\x89!?7\x89!?'
tbsVba05599872742ce748e2eda745e51857
p2004
g3
(g4
(I0
tS'b'
tRp2005
(I1
(I3
tg7
I00
S'\x00\x00 @\x00\x004?\x00\x004?'
tbsV58e4646cbead2fc4a6a1f86bf806e76f
p2006
g3
(g4
(I0
tS'b'
tRp2007
(I1
(I3
tg7
I00
S'\x00f\xe6?\x00\x00\x0c?\x00\x00\x0c?'
tbsV61017c23bbae6e17062ff582d1a237b3
p2008
g3
(g4
(I0
tS'b'
tRp2009
(I1
(I3
tg7
I00
S'\x00\x00\x00@\xf8\xff)?\xf8\xff)?'
tbsVa4dc34f2731b62f60c6c390a39fe11b2
p2010
g3
(g4
(I0
tS'b'
tRp2011
(I1
(I3
tg7
I00
S'\x00\x00\x00@\xfe\x7f4?\xfe\x7f4?'
tbsV8a8419bb3048294f69a31de36cd35a98
p2012
g3
(g4
(I0
tS'b'
tRp2013
(I1
(I3
tg7
I00
S'\x00\x00\xc0?\x00\x00D?\x00\x00D?'
tbsV63d907adcf3f12349a0c2c8921d38e89
p2014
g3
(g4
(I0
tS'b'
tRp2015
(I1
(I3
tg7
I00
S'\x00\x00\xa0?\x08\x00\x16?\x08\x00\x16?'
tbsVdc66d11755fd073a59743d0df6b62ee2
p2016
g3
(g4
(I0
tS'b'
tRp2017
(I1
(I3
tg7
I00
S'\x00\x00\x00@\x06\x80.?\x06\x80.?'
tbsV6e5f12931ef179cc21382a59f5acab86
p2018
g3
(g4
(I0
tS'b'
tRp2019
(I1
(I3
tg7
I00
S'\x00\x00 @\x00\x004?\x00\x004?'
tbsV6e240f23afa2c1b4352cd0db5d4f357d
p2020
g3
(g4
(I0
tS'b'
tRp2021
(I1
(I3
tg7
I00
S'\x00\x989?\x00\x00H?\x00\x00H?'
tbsVa8d308b966048be67f7413daf952ee94
p2022
g3
(g4
(I0
tS'b'
tRp2023
(I1
(I3
tg7
I00
S'\x00\x00 @\x00\x004?\x00\x004?'
tbsV456a7dd28233b398ac83f03c80447b5a
p2024
g3
(g4
(I0
tS'b'
tRp2025
(I1
(I3
tg7
I00
S'\x00\x00\x00@\x00\x00\x1e?\x00\x00\x1e?'
tbsVd421129acf503e770dc1575c1b959607
p2026
g3
(g4
(I0
tS'b'
tRp2027
(I1
(I3
tg7
I00
S'\x00\x00 @\xf8\xff)?\xf8\xff)?'
tbsV318bf8045b625b40825552420abfe1ef
p2028
g3
(g4
(I0
tS'b'
tRp2029
(I1
(I3
tg7
I00
S'\x00h\xe6?\x17\xd9.?\x17\xd9.?'
tbsV82df9b029653e867e86ce9e86ca7275c
p2030
g3
(g4
(I0
tS'b'
tRp2031
(I1
(I3
tg7
I00
S'\x00\x00\xa0?\x02\x80\x1b?\x02\x80\x1b?'
tbsV5451203688c930484ba1f3c7f1378847
p2032
g3
(g4
(I0
tS'b'
tRp2033
(I1
(I3
tg7
I00
S'\x00f\xe6?\x00\x00\x1e?\x00\x00\x1e?'
tbsVe2b7fe7fbb002029640c0e65e3051888
p2034
g3
(g4
(I0
tS'b'
tRp2035
(I1
(I3
tg7
I00
S'\x00\x00\x00@\x00\x00%?\x00\x00%?'
tbsVaea6f1621333074412b9a6acdcda31a9
p2036
g3
(g4
(I0
tS'b'
tRp2037
(I1
(I3
tg7
I00
S'\x00g\xe6?\x00\x00-?\x00\x00-?'
tbsV2d977650e6388d2c45825a77e94437a2
p2038
g3
(g4
(I0
tS'b'
tRp2039
(I1
(I3
tg7
I00
S'`f\xe6?\x00\x80\x19?\x00\x80\x19?'
tbsVee9c580272cd02741df7299892602ac7
p2040
g3
(g4
(I0
tS'b'
tRp2041
(I1
(I3
tg7
I00
S'\x00\x00\xa0?\xf8\xff)?\xf8\xff)?'
tbsV43fecc8947e4fbb47968dc8ef7d8f4ec
p2042
g3
(g4
(I0
tS'b'
tRp2043
(I1
(I3
tg7
I00
S'\x00\x00\x00@\x00\x00H?\x00\x00H?'
tbsV8e0624a689e8e02dbae149771f51f8ca
p2044
g3
(g4
(I0
tS'b'
tRp2045
(I1
(I3
tg7
I00
S'\x00\x00 @\xfc\xff8?\xfc\xff8?'
tbsV0ee336c585bf7eb1011df476891c5102
p2046
g3
(g4
(I0
tS'b'
tRp2047
(I1
(I3
tg7
I00
S'\x00\x00 @\xfe\x7f,?\xfe\x7f,?'
tbsV97967da068bd4ee2d9cb7558f1d8c18c
p2048
g3
(g4
(I0
tS'b'
tRp2049
(I1
(I3
tg7
I00
S'\x00\x00 @\x08\x00\x16?\x08\x00\x16?'
tbsVb53168fc0e9800e06de66f53daf9c5f9
p2050
g3
(g4
(I0
tS'b'
tRp2051
(I1
(I3
tg7
I00
S'\x00\x00\x00@\x00\x00>?\x00\x00>?'
tbsV1183f213c1c821df18aad63890920403
p2052
g3
(g4
(I0
tS'b'
tRp2053
(I1
(I3
tg7
I00
S'\x00\x00\x00@\xff\xff\x10?\xff\xff\x10?'
tbsV6bebfec174e8a6e8d4b1653c13fcdbe5
p2054
g3
(g4
(I0
tS'b'
tRp2055
(I1
(I3
tg7
I00
S'\x00\x00\xa0?\x00\x00H?\x00\x00H?'
tbsVc690f27c439a58684910d04d6409cd17
p2056
g3
(g4
(I0
tS'b'
tRp2057
(I1
(I3
tg7
I00
S'\x00\x00\x00@\x00\x004?\x00\x004?'
tbsV9d8bdc380b51812ba82a6040ef207c33
p2058
g3
(g4
(I0
tS'b'
tRp2059
(I1
(I3
tg7
I00
S'\x00\x00\x00@!\xb0\x12?!\xb0\x12?'
tbsV2703df8c469906a06a45c0d7ff501199
p2060
g3
(g4
(I0
tS'b'
tRp2061
(I1
(I3
tg7
I00
S'\x00\x00 ?\x00\x00/?\x00\x00/?'
tbsV33e0e8629a377e4554b26e60a1007788
p2062
g3
(g4
(I0
tS'b'
tRp2063
(I1
(I3
tg7
I00
S'\x00\x00\x00@\xfe\x7f8?\xfe\x7f8?'
tbsVdc1ecce5e7f8a4be9082cb5650fa62bd
p2064
g3
(g4
(I0
tS'b'
tRp2065
(I1
(I3
tg7
I00
S'\x00\x00\x80?\x00\x001?\x00\x001?'
tbsV34007dd2549af2b82cc1206e550b5100
p2066
g3
(g4
(I0
tS'b'
tRp2067
(I1
(I3
tg7
I00
S'\x00\x00\x00@\x00\x004?\x00\x004?'
tbsVcf34926681dbf1129cb0a629fb72681b
p2068
g3
(g4
(I0
tS'b'
tRp2069
(I1
(I3
tg7
I00
S'\x00\x00\x00@\xf8\xff)?\xf8\xff)?'
tbsV4fb3d996e87999e0dfa0009a3e5f0fbc
p2070
g3
(g4
(I0
tS'b'
tRp2071
(I1
(I3
tg7
I00
S'\x00\x00 @\x00\x004?\x00\x004?'
tbsV7191c236cfcfc68cd21143e3a0faac51
p2072
g3
(g4
(I0
tS'b'
tRp2073
(I1
(I3
tg7
I00
S'\x00\x00 @\x00\x004?\x00\x004?'
tbsVb83ce5267f3fd41c7029b4e56724cd08
p2074
g3
(g4
(I0
tS'b'
tRp2075
(I1
(I3
tg7
I00
S'\x00h\xa6?\x00\x00\x10?\x00\x00\x10?'
tbsV55baceb599dc8aefe4b13c131d0531df
p2076
g3
(g4
(I0
tS'b'
tRp2077
(I1
(I3
tg7
I00
S'\x00f\xe6?\x00\x00!?\x00\x00!?'
tbsVa6195eb9162fc40d5fa2fdb1239dd788
p2078
g3
(g4
(I0
tS'b'
tRp2079
(I1
(I3
tg7
I00
S'\x00\x00\x00@\xfa\x7f%?\xfa\x7f%?'
tbsVafb37b10bd304fa2c7b70cfaf1f489ed
p2080
g3
(g4
(I0
tS'b'
tRp2081
(I1
(I3
tg7
I00
S'\x00f\xe6?\x00\x00\x15?\x00\x00\x15?'
tbsV2c8e0b1e8a3f10b1d59e4aa8fe68a32e
p2082
g3
(g4
(I0
tS'b'
tRp2083
(I1
(I3
tg7
I00
S'\x00\x00\x00@\xf8\xff)?\xf8\xff)?'
tbsVa01074fefbae0234398c365adf970118
p2084
g3
(g4
(I0
tS'b'
tRp2085
(I1
(I3
tg7
I00
S'\x00\x00\x00@\x00\x00\x16?\x00\x00\x16?'
tbsVe79f52e833ccca893509f0fdeeb26e9f
p2086
g3
(g4
(I0
tS'b'
tRp2087
(I1
(I3
tg7
I00
S'\x00\x00\xa0?\xfc\xff\x10?\xfc\xff\x10?'
tbsVdaee58dd09c005fe41ca370c2a2fdfa9
p2088
g3
(g4
(I0
tS'b'
tRp2089
(I1
(I3
tg7
I00
S'\x00\x00 @\x00\x004?\x00\x004?'
tbsV42e374c728e50cf2aaa78db97f24a82c
p2090
g3
(g4
(I0
tS'b'
tRp2091
(I1
(I3
tg7
I00
S"\x00\x00 @\x02\x80'?\x02\x80'?"
tbsV4842c8c0a3f387effde44cb9b3d3fd2e
p2092
g3
(g4
(I0
tS'b'
tRp2093
(I1
(I3
tg7
I00
S'\x00g\xe6?\x00\x003?\x00\x003?'
tbsV68f4dff6dd1f135488e83b8a4ee6e20e
p2094
g3
(g4
(I0
tS'b'
tRp2095
(I1
(I3
tg7
I00
S'\x00\x00 @\x04\x00\x1f?\x04\x00\x1f?'
tbsVeba18d04b18084ef64be8f22bb7905ca
p2096
g3
(g4
(I0
tS'b'
tRp2097
(I1
(I3
tg7
I00
S'\x00\x00\xa0?\x00\x004?\x00\x004?'
tbsVd5c43054ba0f66d5017a8ddfde8c8c34
p2098
g3
(g4
(I0
tS'b'
tRp2099
(I1
(I3
tg7
I00
S'\x00\x00\x00@\x00\x004?\x00\x004?'
tbsV90e3b396e1c1343a514eb5890833d3d8
p2100
g3
(g4
(I0
tS'b'
tRp2101
(I1
(I3
tg7
I00
S'\x00f\xe6?\x00\x00/?\x00\x00/?'
tbsV5f3b9b59f957fea0a5e8cc506e12652e
p2102
g3
(g4
(I0
tS'b'
tRp2103
(I1
(I3
tg7
I00
S'\x00f\xe6?\x00\x00\x11?\x00\x00\x11?'
tbsVe67bc6cd24a71a486b626592d591a2da
p2104
g3
(g4
(I0
tS'b'
tRp2105
(I1
(I3
tg7
I00
S'\x00\x00 @\x04\x00\x13?\x04\x00\x13?'
tbsVdc9854bcdcc71b690d9806438009001d
p2106
g3
(g4
(I0
tS'b'
tRp2107
(I1
(I3
tg7
I00
S'\x00\x00\x00@\xfe\x7f(?\xfe\x7f(?'
tbsV8aaa3a09b1f20e950609a62a1de511df
p2108
g3
(g4
(I0
tS'b'
tRp2109
(I1
(I3
tg7
I00
S'\x00\x00\xc0?\x00\x00>?\x00\x00>?'
tbsVf44dd045f6dcb1e477e6d3dc0f29d7e8
p2110
g3
(g4
(I0
tS'b'
tRp2111
(I1
(I3
tg7
I00
S'\x00\x00\xa0?\x00\x00H?\x00\x00H?'
tbsV35ab1899e939be4e67923a1624c91365
p2112
g3
(g4
(I0
tS'b'
tRp2113
(I1
(I3
tg7
I00
S'\x00\x00\x00@\x00\x004?\x00\x004?'
tbsV11616de262f844e6542d3c65d9238b6e
p2114
g3
(g4
(I0
tS'b'
tRp2115
(I1
(I3
tg7
I00
S'\x00\x00\xc0?\x00\x00M?\x00\x00M?'
tbsVf5ff7734997820b45dafa75dff60ece8
p2116
g3
(g4
(I0
tS'b'
tRp2117
(I1
(I3
tg7
I00
S'\x00\x00\x00@\x00\x00\x11?\x00\x00\x11?'
tbsV893fbc465b9d8a25569659a2bac154ef
p2118
g3
(g4
(I0
tS'b'
tRp2119
(I1
(I3
tg7
I00
S'\x00\x00\x00@\x00\x00\x0c?\x00\x00\x0c?'
tbsVe2bcbfe1ab0f9ddc5d6234f819cd5df5
p2120
g3
(g4
(I0
tS'b'
tRp2121
(I1
(I3
tg7
I00
S'\x00\x00\x00@\x00\x004?\x00\x004?'
tbsV775c5f8043e72b2284b5885254566271
p2122
g3
(g4
(I0
tS'b'
tRp2123
(I1
(I3
tg7
I00
S'\x00\x00\x00@\x00\x004?\x00\x004?'
tbsV9ce92cb785c9878389bd5f765a07e1ae
p2124
g3
(g4
(I0
tS'b'
tRp2125
(I1
(I3
tg7
I00
S'\x00\x00 @\x04\x00\x1b?\x04\x00\x1b?'
tbsVe63f43056330bc418a11208aa3a9e7f0
p2126
g3
(g4
(I0
tS'b'
tRp2127
(I1
(I3
tg7
I00
S'\x00\x00\x00@\x00\x00*?\x00\x00*?'
tbsV8d98bf96ed8555da4df44f26cc8426bf
p2128
g3
(g4
(I0
tS'b'
tRp2129
(I1
(I3
tg7
I00
S'\x00f\xe6?\x00\x00\n?\x00\x00\n?'
tbsVcfbcb16fea277226d6771d8b1966397a
p2130
g3
(g4
(I0
tS'b'
tRp2131
(I1
(I3
tg7
I00
S'\x00\x00\x80?\x00\x00-?\x00\x00-?'
tbsV45a8417be8f56b401bd7b5d106f5acdd
p2132
g3
(g4
(I0
tS'b'
tRp2133
(I1
(I3
tg7
I00
S'\x00\x00\x00@\x00\x00\x16?\x00\x00\x16?'
tbsVcc1b7e34d9eba737c9fb91316463e8f7
p2134
g3
(g4
(I0
tS'b'
tRp2135
(I1
(I3
tg7
I00
S'\x00\x00\x00@\x00\x00%?\x00\x00%?'
tbsV86ff28a92989348192783795a5b442e5
p2136
g3
(g4
(I0
tS'b'
tRp2137
(I1
(I3
tg7
I00
S'\x00f\xe6?\x00\x00-?\x00\x00-?'
tbsV662153a685fb4268361bfbaca5e9ca23
p2138
g3
(g4
(I0
tS'b'
tRp2139
(I1
(I3
tg7
I00
S"\x00\x00 @\x04\x00'?\x04\x00'?"
tbsV9065f2b133129c5747d42db18a424749
p2140
g3
(g4
(I0
tS'b'
tRp2141
(I1
(I3
tg7
I00
S'\x00\x00\x00@\xfc\xff$?\xfc\xff$?'
tbsVba8912fd754683662e542f8e737d1230
p2142
g3
(g4
(I0
tS'b'
tRp2143
(I1
(I3
tg7
I00
S'\x00\x00\x00@\x01\x00\x1b?\x01\x00\x1b?'
tbsVa1b021261acaa7ffedfe15d2c8380de1
p2144
g3
(g4
(I0
tS'b'
tRp2145
(I1
(I3
tg7
I00
S'\x00\x00\xc0?\x00\x00E?\x00\x00E?'
tbsV245fe0c86269602b0dab44c345b0b412
p2146
g3
(g4
(I0
tS'b'
tRp2147
(I1
(I3
tg7
I00
S'\x00\x00\x80?\x00\x00\x14?\x00\x00\x14?'
tbsVc3e23e84b9f9f31c3ba5458c7f43ec52
p2148
g3
(g4
(I0
tS'b'
tRp2149
(I1
(I3
tg7
I00
S'\x00\x00\x00@\x08\x00.?\x08\x00.?'
tbsVe56b9f25a47a42f4ae4085005c46109c
p2150
g3
(g4
(I0
tS'b'
tRp2151
(I1
(I3
tg7
I00
S'\x00\x00\x00@\x00\x004?\x00\x004?'
tbsV8326bb56a429c54a744484423a9bd9b5
p2152
g3
(g4
(I0
tS'b'
tRp2153
(I1
(I3
tg7
I00
S'\x00\x00\xa0?\xfe\x7f\x00?\xfe\x7f\x00?'
tbsVfd64b23b8cd8c371c8f76fbb503e4e0e
p2154
g3
(g4
(I0
tS'b'
tRp2155
(I1
(I3
tg7
I00
S'\x00f\xe6?\x01\x00\x07?\x01\x00\x07?'
tbsVac3345a5a05655c6bcce7d0b226a0042
p2156
g3
(g4
(I0
tS'b'
tRp2157
(I1
(I3
tg7
I00
S'\x00\x00 @\x00\x004?\x00\x004?'
tbsVcaf9672e7177c141dd3d9c8631af6b8d
p2158
g3
(g4
(I0
tS'b'
tRp2159
(I1
(I3
tg7
I00
S'\x00\x00\x00@\x00\x00\x16?\x00\x00\x16?'
tbsV6f229187fe608c9eacc567eb74c1458c
p2160
g3
(g4
(I0
tS'b'
tRp2161
(I1
(I3
tg7
I00
S'\x00\x00 ?\x00\x80`?\x00\x80`?'
tbsV39ebb8121ea6faec0405a4e8db883b55
p2162
g3
(g4
(I0
tS'b'
tRp2163
(I1
(I3
tg7
I00
S'\x00\x00\x00@\xbe\x9f\x1a?\xbe\x9f\x1a?'
tbsV85746d90494345e38ab61533e999b3f1
p2164
g3
(g4
(I0
tS'b'
tRp2165
(I1
(I3
tg7
I00
S'\x00\x00\x00@\xf8\xff\x19?\xf8\xff\x19?'
tbsV82289d2db2b1e33d68ba6736b21b0e43
p2166
g3
(g4
(I0
tS'b'
tRp2167
(I1
(I3
tg7
I00
S'\x00\x00 @\x08\x00\x16?\x08\x00\x16?'
tbsV86ad341b9ac27364f03981f6a775246c
p2168
g3
(g4
(I0
tS'b'
tRp2169
(I1
(I3
tg7
I00
S'\x00\x00 @\xfa\x7f\x15?\xfa\x7f\x15?'
tbsV74b542d34b61740c1933d2c953403aa6
p2170
g3
(g4
(I0
tS'b'
tRp2171
(I1
(I3
tg7
I00
S'\x00\x00 @\xfc\xff\x10?\xfc\xff\x10?'
tbsV7d46ce019d79d13ee9ce8f18e010e71a
p2172
g3
(g4
(I0
tS'b'
tRp2173
(I1
(I3
tg7
I00
S'\x00\x00 @\xfc\xff\x10?\xfc\xff\x10?'
tbsV9de4a1ebcdf1cfd8566ed1d9b63cbeb7
p2174
g3
(g4
(I0
tS'b'
tRp2175
(I1
(I3
tg7
I00
S'\x00\x00\x00@\x00\x005?\x00\x005?'
tbsV820245d8b211808bd18e78ff5be16fdb
p2176
g3
(g4
(I0
tS'b'
tRp2177
(I1
(I3
tg7
I00
S'\x00\x00 @\xfc\xff$?\xfc\xff$?'
tbsV5fd33ea74e1ad740a201ae9b3c383fc5
p2178
g3
(g4
(I0
tS'b'
tRp2179
(I1
(I3
tg7
I00
S'\x00\x00\x00@\xfc\xff\x0c?\xfc\xff\x0c?'
tbsV180737a8b34cf2c88b00dfad3e7556ae
p2180
g3
(g4
(I0
tS'b'
tRp2181
(I1
(I3
tg7
I00
S'\x00\x00\xc0?\x00\x00+?\x00\x00+?'
tbsVcaa6c81b74054858772bda6c2a0e8ee6
p2182
g3
(g4
(I0
tS'b'
tRp2183
(I1
(I3
tg7
I00
S'\x00\x00\xa0?\x08\x00\x16?\x08\x00\x16?'
tbsVc1da930ea00f6d11bab7dd34014b7d6c
p2184
g3
(g4
(I0
tS'b'
tRp2185
(I1
(I3
tg7
I00
S'\x00\x00\x00@\x00\x00+?\x00\x00+?'
tbsV7bc437435c5677d361177adb80547bd0
p2186
g3
(g4
(I0
tS'b'
tRp2187
(I1
(I3
tg7
I00
S'\x00\x00\x80?\x00\x00H?\x00\x00H?'
tbsVb0d5ba3a5ac7998791f7e484c070dcb9
p2188
g3
(g4
(I0
tS'b'
tRp2189
(I1
(I3
tg7
I00
S'\x00\x00 @\xf8\xff\x01?\xf8\xff\x01?'
tbsV5f4e23c0f76cd00aaaa6e03744bbc362
p2190
g3
(g4
(I0
tS'b'
tRp2191
(I1
(I3
tg7
I00
S'\x00\x00\x00@F\xb63?F\xb63?'
tbsVb229a7697c3efcd6ab82f6f19aff8e8b
p2192
g3
(g4
(I0
tS'b'
tRp2193
(I1
(I3
tg7
I00
S'\x00\x00\x00@Nb\x10?Nb\x10?'
tbsVf39dacd5f134f3f4482094d3f8a0aff1
p2194
g3
(g4
(I0
tS'b'
tRp2195
(I1
(I3
tg7
I00
S'\x00\x00\xa0?\x00\x00@?\x00\x00@?'
tbsV2ed2ec628e6ad9d0aa8c2a9b7bf4c4ce
p2196
g3
(g4
(I0
tS'b'
tRp2197
(I1
(I3
tg7
I00
S'\x00\x00\xa0?\x00\x00H?\x00\x00H?'
tbsV8ee6f423ff988d10f2bb383df98c1b2e
p2198
g3
(g4
(I0
tS'b'
tRp2199
(I1
(I3
tg7
I00
S'\x00\x00\x80?\x00\x009?\x00\x009?'
tbsV202898fa97c5949fbdc07ae7ff1cd9f0
p2200
g3
(g4
(I0
tS'b'
tRp2201
(I1
(I3
tg7
I00
S'\x00\x00\xa0?\x04\x00/?\x04\x00/?'
tbsV70f4eb8201e3155cc3e399f0ff09c5ef
p2202
g3
(g4
(I0
tS'b'
tRp2203
(I1
(I3
tg7
I00
S'\x00\x00\x00@\x00\x00\x0f?\x00\x00\x0f?'
tbsV1e0f8048728717064645cb758eb89279
p2204
g3
(g4
(I0
tS'b'
tRp2205
(I1
(I3
tg7
I00
S'\x00\x00\x00@\xf8\xff)?\xf8\xff)?'
tbsV3c86ed658e82e542bc542886a59ea4f1
p2206
g3
(g4
(I0
tS'b'
tRp2207
(I1
(I3
tg7
I00
S'\x00\x989?\xfe\x7f\x10?\xfe\x7f\x10?'
tbsVd917c781760710015473eee9ce82e051
p2208
g3
(g4
(I0
tS'b'
tRp2209
(I1
(I3
tg7
I00
S'\x00\x00 @\x00\x00 ?\x00\x00 ?'
tbsV627499714e279203bd1294290f8fc542
p2210
g3
(g4
(I0
tS'b'
tRp2211
(I1
(I3
tg7
I00
S'\x00\x00\xa0?\x04\x00/?\x04\x00/?'
tbsVc928b4fee44ea322ac65348ae2ff20b8
p2212
g3
(g4
(I0
tS'b'
tRp2213
(I1
(I3
tg7
I00
S'\x00\x00\x00@\xfc\xff\x10?\xfc\xff\x10?'
tbsV7df28e2253be3490208ba9a9f470ea1d
p2214
g3
(g4
(I0
tS'b'
tRp2215
(I1
(I3
tg7
I00
S'\x00\x00\x00@\x08\x00>?\x08\x00>?'
tbsV7921bbb92d5390784f3ba046be0d59a3
p2216
g3
(g4
(I0
tS'b'
tRp2217
(I1
(I3
tg7
I00
S'\x00d\xa6?\x00\x00+?\x00\x00+?'
tbsVadc3bbc63d40f8761c59be10f1e504c3
p2218
g3
(g4
(I0
tS'b'
tRp2219
(I1
(I3
tg7
I00
S"\x00\x00 ?\x00\x80'?\x00\x80'?"
tbsV87cdb87db24528fdb8479220a1854b83
p2220
g3
(g4
(I0
tS'b'
tRp2221
(I1
(I3
tg7
I00
S'\x00\x00\x00@\x01\x00\x07?\x01\x00\x07?'
tbsV2f154a687b94f7b59fec7048cbfb5354
p2222
g3
(g4
(I0
tS'b'
tRp2223
(I1
(I3
tg7
I00
S'\x00\x00\x00@\x00\x00/?\x00\x00/?'
tbsVc25876fb40d6f8dafd1ecb243193dd3f
p2224
g3
(g4
(I0
tS'b'
tRp2225
(I1
(I3
tg7
I00
S'\x00\x00 @\xfc\xff$?\xfc\xff$?'
tbsVba162711fc958842582ef1828d37f8e0
p2226
g3
(g4
(I0
tS'b'
tRp2227
(I1
(I3
tg7
I00
S'\x00\x00\xa0?\x08\x00>?\x08\x00>?'
tbsVa6f09ff7b85c72ee28a9e725bb1ec652
p2228
g3
(g4
(I0
tS'b'
tRp2229
(I1
(I3
tg7
I00
S'\x00\x00\x00@\xfc\xff8?\xfc\xff8?'
tbsVfcdc2d423356d53759a8f602d40785a6
p2230
g3
(g4
(I0
tS'b'
tRp2231
(I1
(I3
tg7
I00
S'\x00\x00\xa0?\xf8\xff!?\xf8\xff!?'
tbsVe659f6517c4df17e86d4d87181396ea6
p2232
g3
(g4
(I0
tS'b'
tRp2233
(I1
(I3
tg7
I00
S'\x00\x00\x00@\x04\x00C?\x04\x00C?'
tbsV9a378249b799bbcefac2a7de46896c0a
p2234
g3
(g4
(I0
tS'b'
tRp2235
(I1
(I3
tg7
I00
S'\x00\x00\x00@\x00\x004?\x00\x004?'
tbsVbe2be08151ef4d3aebd3ea4fcd5d364b
p2236
g3
(g4
(I0
tS'b'
tRp2237
(I1
(I3
tg7
I00
S'\x00\x00\x00@\x00\x00H?\x00\x00H?'
tbsVbe3e35bf8395366d235b8bcfc71a05ee
p2238
g3
(g4
(I0
tS'b'
tRp2239
(I1
(I3
tg7
I00
S'\x00\x00 @\x00\x004?\x00\x004?'
tbsVbf6a7a9ab4e18b18f43129c9e22fb448
p2240
g3
(g4
(I0
tS'b'
tRp2241
(I1
(I3
tg7
I00
S'\x00\x00\x80?\xfe\x7f\x18?\xfe\x7f\x18?'
tbsVb280f1f464aa5e0de843229de12fc1aa
p2242
g3
(g4
(I0
tS'b'
tRp2243
(I1
(I3
tg7
I00
S'\x00\x00\x00@\x00\x004?\x00\x004?'
tbsV263a1c3bfa43556623e75ed901e3fd8f
p2244
g3
(g4
(I0
tS'b'
tRp2245
(I1
(I3
tg7
I00
S'\x00\x00\x00@\x08\x00\x16?\x08\x00\x16?'
tbsV50cdacec399071cf70d8badd2511d0b3
p2246
g3
(g4
(I0
tS'b'
tRp2247
(I1
(I3
tg7
I00
S'\x00\x00\x00@\x00\x00/?\x00\x00/?'
tbsV9703fd051751879432975535663150da
p2248
g3
(g4
(I0
tS'b'
tRp2249
(I1
(I3
tg7
I00
S'\x00\x00\x00@\xfe\x7f\x0c?\xfe\x7f\x0c?'
tbsVcff7e7e9f8cb7b37c109ed6b1f11b783
p2250
g3
(g4
(I0
tS'b'
tRp2251
(I1
(I3
tg7
I00
S'\x00\x00\x00@\xf8\xff)?\xf8\xff)?'
tbsVebcdfabecf4b46b1e55e4a4c75a0afb0
p2252
g3
(g4
(I0
tS'b'
tRp2253
(I1
(I3
tg7
I00
S'\x00\x00 @\x08\x00>?\x08\x00>?'
tbsV9462c59a652187dc2d581b8772bcb3f0
p2254
g3
(g4
(I0
tS'b'
tRp2255
(I1
(I3
tg7
I00
S'\x00\x00 @\xf8\xff)?\xf8\xff)?'
tbsV9e5c2e760b94b8919691d344cfdbac7f
p2256
g3
(g4
(I0
tS'b'
tRp2257
(I1
(I3
tg7
I00
S'\x00\x00\x80?\x00\x00/?\x00\x00/?'
tbsV993f1e68290d591f755669e97b49b4f4
p2258
g3
(g4
(I0
tS'b'
tRp2259
(I1
(I3
tg7
I00
S'\x00d\xa6?\x00\x00.?\x00\x00.?'
tbsVb1786f35f31c424f6c9e3380c1c51c0b
p2260
g3
(g4
(I0
tS'b'
tRp2261
(I1
(I3
tg7
I00
S'\x00\x00\x00@\x00\x00*?\x00\x00*?'
tbsV85ab88f093ca53a4fab5654e24c77ebe
p2262
g3
(g4
(I0
tS'b'
tRp2263
(I1
(I3
tg7
I00
S'\x00g\xe6?\x00\x00,?\x00\x00,?'
tbsVed0f3c1619b2becec76ba5df66e1ea56
p2264
g3
(g4
(I0
tS'b'
tRp2265
(I1
(I3
tg7
I00
S'\x00\xff\xff?\xfc\xff$?\xfc\xff$?'
tbsV5a06cb92ba004e2265ab087b5b09e33a
p2266
g3
(g4
(I0
tS'b'
tRp2267
(I1
(I3
tg7
I00
S'@\x00 @\x04\x00\x1b?\x04\x00\x1b?'
tbsV118be21b7e0c3058b29a524686391c66
p2268
g3
(g4
(I0
tS'b'
tRp2269
(I1
(I3
tg7
I00
S'\x00\x00\x00@\x00\x004?\x00\x004?'
tbsV519ad4ead3e61d2d71088ac8e46f25b6
p2270
g3
(g4
(I0
tS'b'
tRp2271
(I1
(I3
tg7
I00
S'\x00\x00 @\x04\x00/?\x04\x00/?'
tbsVfb99a80cbb2f441bb90135bab5b029fe
p2272
g3
(g4
(I0
tS'b'
tRp2273
(I1
(I3
tg7
I00
S'\x00\x00 @\x06\x80.?\x06\x80.?'
tbsV80a3052f4a1b90fd38fd0def7b79b65c
p2274
g3
(g4
(I0
tS'b'
tRp2275
(I1
(I3
tg7
I00
S'\x00\x00\xa0?\x00\x004?\x00\x004?'
tbsV84ed26b5d79da321711ed869b3cad2ea
p2276
g3
(g4
(I0
tS'b'
tRp2277
(I1
(I3
tg7
I00
S'\x00\x00 @\xfc\xff8?\xfc\xff8?'
tbsV2c51b9e7af4850d817f4aa0ddf90b852
p2278
g3
(g4
(I0
tS'b'
tRp2279
(I1
(I3
tg7
I00
S'\x00\x00 @\x00\x00 ?\x00\x00 ?'
tbsV338f9c6da34f61091a4c44b074b2f9e3
p2280
g3
(g4
(I0
tS'b'
tRp2281
(I1
(I3
tg7
I00
S'\x00\x00 @\xfc\xff$?\xfc\xff$?'
tbsVa532c6f9405e6f3a4229ea6e04b0d975
p2282
g3
(g4
(I0
tS'b'
tRp2283
(I1
(I3
tg7
I00
S'\x00\x00\x00@\x00\x00\x16?\x00\x00\x16?'
tbsV5c99ab7172afa78312fe73a3c0dd342f
p2284
g3
(g4
(I0
tS'b'
tRp2285
(I1
(I3
tg7
I00
S'\x00\x989?\xf8\xff)?\xf8\xff)?'
tbsVaf1d0c2fcde369dd1b715460c2f704a2
p2286
g3
(g4
(I0
tS'b'
tRp2287
(I1
(I3
tg7
I00
S'\x00h\xa6?\x00\x00\x0e?\x00\x00\x0e?'
tbsV7ffe144af38f85d177af286c5d941ef1
p2288
g3
(g4
(I0
tS'b'
tRp2289
(I1
(I3
tg7
I00
S'\x00f\xe6?\x01\x00/?\x01\x00/?'
tbsVc3b05094939cc128a4593736f05eadec
p2290
g3
(g4
(I0
tS'b'
tRp2291
(I1
(I3
tg7
I00
S'\x00g\xe6?\xff\xff\x10?\xff\xff\x10?'
tbsV787bd094dd0586ea0f51f9f8557424a8
p2292
g3
(g4
(I0
tS'b'
tRp2293
(I1
(I3
tg7
I00
S'\x00D\xe6?F\xb63?F\xb63?'
tbsV83463d2951670b7e8c3efd7594a13e10
p2294
g3
(g4
(I0
tS'b'
tRp2295
(I1
(I3
tg7
I00
S'\x00\x00\x00@\xff\xff$?\xff\xff$?'
tbsVfbaa8548e6c3753836579c7987d0034d
p2296
g3
(g4
(I0
tS'b'
tRp2297
(I1
(I3
tg7
I00
S'\x00\x00\x00@\x00\x00&?\x00\x00&?'
tbsV6540e089936a6c9d1f11939e96e6ab18
p2298
g3
(g4
(I0
tS'b'
tRp2299
(I1
(I3
tg7
I00
S'\x00\x00 @\x00\x004?\x00\x004?'
tbsV66fb40934f0be4b301fe27db7fb62299
p2300
g3
(g4
(I0
tS'b'
tRp2301
(I1
(I3
tg7
I00
S'\x00\x00\x00@\xf8\xff\xf9>\xf8\xff\xf9>'
tbsV529e4dd38822b413a4a87e6f4faa5f23
p2302
g3
(g4
(I0
tS'b'
tRp2303
(I1
(I3
tg7
I00
S'\x00\x00\x00@\x00\x00\x16?\x00\x00\x16?'
tbsV6f38eb7988753c6a978d0da80dbc014b
p2304
g3
(g4
(I0
tS'b'
tRp2305
(I1
(I3
tg7
I00
S'\x00\x00\x00@\x00\x00/?\x00\x00/?'
tbsV2a3e6ecf9499607ef4fd14b436136b0c
p2306
g3
(g4
(I0
tS'b'
tRp2307
(I1
(I3
tg7
I00
S'\x00\x00 @\xf8\xff)?\xf8\xff)?'
tbsVb0599ad2f33276e7cd065eaa8dcec8a2
p2308
g3
(g4
(I0
tS'b'
tRp2309
(I1
(I3
tg7
I00
S'\x00f\xe6?\x00\x00\x19?\x00\x00\x19?'
tbsV4f3039ae82f8cc764d1ec21116f54a07
p2310
g3
(g4
(I0
tS'b'
tRp2311
(I1
(I3
tg7
I00
S'\x00\x00\x00@\x04\x00/?\x04\x00/?'
tbsV385f1f49b0c20563177c36b7470f1c46
p2312
g3
(g4
(I0
tS'b'
tRp2313
(I1
(I3
tg7
I00
S'\x00\x00\x00@\x00\x00 ?\x00\x00 ?'
tbsV2276fd918ac100cec3ed8036f6ad401c
p2314
g3
(g4
(I0
tS'b'
tRp2315
(I1
(I3
tg7
I00
S'\x00\x00\x00@\x00\x004?\x00\x004?'
tbsVed83b655a1bbad40a782ad13cf27ce8f
p2316
g3
(g4
(I0
tS'b'
tRp2317
(I1
(I3
tg7
I00
S'\x00\x00\x00@\x00\x80!?\x00\x80!?'
tbsV965fbaad39ecdaf8a135f022c8ddaef3
p2318
g3
(g4
(I0
tS'b'
tRp2319
(I1
(I3
tg7
I00
S'\x00\x00\xa0?\x00\x004?\x00\x004?'
tbsV8bbad07d91788b97cf894a05a152d291
p2320
g3
(g4
(I0
tS'b'
tRp2321
(I1
(I3
tg7
I00
S'\x00\x00\x00@\xfa\x7fQ?\xfa\x7fQ?'
tbsVaf3657cf479490d027ada92b330f80af
p2322
g3
(g4
(I0
tS'b'
tRp2323
(I1
(I3
tg7
I00
S'\x00D\xe6?\xe9&\x11?\xe9&\x11?'
tbsV05609fdb8fa0895ac8a9be373144dac7
p2324
g3
(g4
(I0
tS'b'
tRp2325
(I1
(I3
tg7
I00
S'\x00g\xe6?\x00\x00>?\x00\x00>?'
tbsVd4307a302483bcc04717ca4f565db678
p2326
g3
(g4
(I0
tS'b'
tRp2327
(I1
(I3
tg7
I00
S'\x00\x00 @\x04\x00\x1b?\x04\x00\x1b?'
tbsV0ddeb08e9c97227853422bd71a2a695e
p2328
g3
(g4
(I0
tS'b'
tRp2329
(I1
(I3
tg7
I00
S'\x00\x00\x00@\x00\x00D?\x00\x00D?'
tbsV6a145c28d3b722643f547dfcbdf379ae
p2330
g3
(g4
(I0
tS'b'
tRp2331
(I1
(I3
tg7
I00
S'\x00\x00\x80?\x04\x00/?\x04\x00/?'
tbsV5a57009fcdea02d30d31a47d2454dc29
p2332
g3
(g4
(I0
tS'b'
tRp2333
(I1
(I3
tg7
I00
S'\x00\x00 @\xfc\xff8?\xfc\xff8?'
tbsVaf7420c5b1c47763ecb5f6e286517b2e
p2334
g3
(g4
(I0
tS'b'
tRp2335
(I1
(I3
tg7
I00
S'\x00\x00\xa0?\x00\x004?\x00\x004?'
tbsVf52bd66210db45189027991781e1162b
p2336
g3
(g4
(I0
tS'b'
tRp2337
(I1
(I3
tg7
I00
S'\x00\x00\x80?\xfc\xff(?\xfc\xff(?'
tbsV70287a7720e0d90249ac7b3978b7ca40
p2338
g3
(g4
(I0
tS'b'
tRp2339
(I1
(I3
tg7
I00
S'\x00\x00\x00@\x00\x00\x16?\x00\x00\x16?'
tbsV8615d91dab90b906088e4097fc822820
p2340
g3
(g4
(I0
tS'b'
tRp2341
(I1
(I3
tg7
I00
S'\x00\x00\x80?\x00\x00\x1e?\x00\x00\x1e?'
tbsVbd87def5b7e1ec4f0057cde049995d83
p2342
g3
(g4
(I0
tS'b'
tRp2343
(I1
(I3
tg7
I00
S'\x00\x00\x00@\xf8\xffI?\xf8\xffI?'
tbsVd0baf38ff8d974e7b59c23fd43713de9
p2344
g3
(g4
(I0
tS'b'
tRp2345
(I1
(I3
tg7
I00
S'\x00\x00 @\x04\x00/?\x04\x00/?'
tbsV8e9002a485cbda2b47cd14014d6f1c36
p2346
g3
(g4
(I0
tS'b'
tRp2347
(I1
(I3
tg7
I00
S'\x00f\xe6?\x00\x009?\x00\x009?'
tbsV2d5cd7c1ee9a74a1244ddd6b55ad0446
p2348
g3
(g4
(I0
tS'b'
tRp2349
(I1
(I3
tg7
I00
S'\x00\x00\x80?\xfc\xffL?\xfc\xffL?'
tbsV49a29b3f5bee32b350bedc4cfbad8e9c
p2350
g3
(g4
(I0
tS'b'
tRp2351
(I1
(I3
tg7
I00
S'\x00\x00\x00@\x02\x80+?\x02\x80+?'
tbsV3ee1fd6a0f3f108c3558e6699fb011f2
p2352
g3
(g4
(I0
tS'b'
tRp2353
(I1
(I3
tg7
I00
S'\x00\x00\xc0?\x00\x00!?\x00\x00!?'
tbsVd51dffd06b80ed003aa6095b0639f511
p2354
g3
(g4
(I0
tS'b'
tRp2355
(I1
(I3
tg7
I00
S'\x00\x00\x00@\x00\x00\x1c?\x00\x00\x1c?'
tbsVf938f9022abf7f1072fe9df79db7eccd
p2356
g3
(g4
(I0
tS'b'
tRp2357
(I1
(I3
tg7
I00
S'\x00\x00\x00@\x04\x00/?\x04\x00/?'
tbsV2e26f46f1edc232be164c1fe2712e96a
p2358
g3
(g4
(I0
tS'b'
tRp2359
(I1
(I3
tg7
I00
S'\x00\x00\x00@\x00\x00$?\x00\x00$?'
tbsVc1ba619e3b49e0cb7798bd10465c2b29
p2360
g3
(g4
(I0
tS'b'
tRp2361
(I1
(I3
tg7
I00
S'\x00\x00 ?\xfe\x7f\\?\xfe\x7f\\?'
tbsV1c498f306808952739e7a3a3a2439d1e
p2362
g3
(g4
(I0
tS'b'
tRp2363
(I1
(I3
tg7
I00
S'\x00\x00\x00@\x04\x00\x1b?\x04\x00\x1b?'
tbsV8e92c4db434da3b8d4e3cafce3f072fb
p2364
g3
(g4
(I0
tS'b'
tRp2365
(I1
(I3
tg7
I00
S'\x00D\xe6?\x85\xebQ?\x85\xebQ?'
tbsVe1e47812eecd80466cf7f5b0160de446
p2366
g3
(g4
(I0
tS'b'
tRp2367
(I1
(I3
tg7
I00
S'\x00\x00\x00@\xf6(\x1c?\xf6(\x1c?'
tbsVb7045ebff6dbb0023087e0399d00b873
p2368
g3
(g4
(I0
tS'b'
tRp2369
(I1
(I3
tg7
I00
S'\x00f\xe6?\x00\x004?\x00\x004?'
tbsV4fcf8b00ea7a99162dc70aba253ba669
p2370
g3
(g4
(I0
tS'b'
tRp2371
(I1
(I3
tg7
I00
S'\x00\x00\x00@\x01\x00/?\x01\x00/?'
tbsV7b547c5afa0c028b0e20e9a28eaeaa41
p2372
g3
(g4
(I0
tS'b'
tRp2373
(I1
(I3
tg7
I00
S'\x00\x00 @\x00\x000?\x00\x000?'
tbsV81bd0c062bfa8e85616878bab90f2314
p2374
g3
(g4
(I0
tS'b'
tRp2375
(I1
(I3
tg7
I00
S'\x00\x00\x00@\xff\xff$?\xff\xff$?'
tbsV089b8f10743e449a0f64f8f311dd8a46
p2376
g3
(g4
(I0
tS'b'
tRp2377
(I1
(I3
tg7
I00
S'\x00\x00\xa0?\x00\x004?\x00\x004?'
tbsV70671fa94231eb377e8ac7cba4650dfb
p2378
g3
(g4
(I0
tS'b'
tRp2379
(I1
(I3
tg7
I00
S'\x00\x00\x80?\x00\x00H?\x00\x00H?'
tbsV3244f802b7bd7c02ba7a8473802e947d
p2380
g3
(g4
(I0
tS'b'
tRp2381
(I1
(I3
tg7
I00
S'\x00\x00 @\xfc\xff0?\xfc\xff0?'
tbsV243e69389ae5738d3f89386b0efddbcd
p2382
g3
(g4
(I0
tS'b'
tRp2383
(I1
(I3
tg7
I00
S'\x00\x00 @\xfe\x7f8?\xfe\x7f8?'
tbsV7fd5be8ec9c236c314f801384bd89c0c
p2384
g3
(g4
(I0
tS'b'
tRp2385
(I1
(I3
tg7
I00
S'\x00\x00 @\x00\x00 ?\x00\x00 ?'
tbsV733205c5d0bbf19f5c761e0c023bf9a0
p2386
g3
(g4
(I0
tS'b'
tRp2387
(I1
(I3
tg7
I00
S'\x00\x00 @\x00\x00 ?\x00\x00 ?'
tbsVab5de6c17f4086ba09b7145178d83b45
p2388
g3
(g4
(I0
tS'b'
tRp2389
(I1
(I3
tg7
I00
S'\x00\x00 @\x08\x00\x16?\x08\x00\x16?'
tbsVad7e6fe9d036ed070df718f95b212a10
p2390
g3
(g4
(I0
tS'b'
tRp2391
(I1
(I3
tg7
I00
S'\x00\x00\x00@\x00\x00\x0c?\x00\x00\x0c?'
tbsV65f596f75eebf7935554eaed3c8172ce
p2392
g3
(g4
(I0
tS'b'
tRp2393
(I1
(I3
tg7
I00
S'\x00\x00 @\xf8\xff)?\xf8\xff)?'
tbsV04a8c47583142181728056310759dea1
p2394
g3
(g4
(I0
tS'b'
tRp2395
(I1
(I3
tg7
I00
S'\x00\x00\x00@\xf8\xff)?\xf8\xff)?'
tbsVa2d9e657a673798f9ebdfec1b361f93a
p2396
g3
(g4
(I0
tS'b'
tRp2397
(I1
(I3
tg7
I00
S'\x00\x00\x00@\x8d\x97.?\x8d\x97.?'
tbsVac4056071f3cc98489b9db3aebfe2b6a
p2398
g3
(g4
(I0
tS'b'
tRp2399
(I1
(I3
tg7
I00
S'\x00\x00\x00@\x00\x004?\x00\x004?'
tbsV995fc0581ed0e3ba0f97dbd7fe63db59
p2400
g3
(g4
(I0
tS'b'
tRp2401
(I1
(I3
tg7
I00
S'\x00\x00\x80?\x00\x00H?\x00\x00H?'
tbsVcca8f8cc51b58df2a4804a7aee8eef8c
p2402
g3
(g4
(I0
tS'b'
tRp2403
(I1
(I3
tg7
I00
S'\x00\x00\xa0?\x00\x004?\x00\x004?'
tbsV975f7f3c5bad9e9f0bc31e723fd6f793
p2404
g3
(g4
(I0
tS'b'
tRp2405
(I1
(I3
tg7
I00
S'\x00\x00\x00@\x00\x00\x14?\x00\x00\x14?'
tbsVe6b3e750c6c7a70ca512d77defcfe615
p2406
g3
(g4
(I0
tS'b'
tRp2407
(I1
(I3
tg7
I00
S'\x00\x00 @\x00\x004?\x00\x004?'
tbsV4cc309d81bf3685d7def772862375a2a
p2408
g3
(g4
(I0
tS'b'
tRp2409
(I1
(I3
tg7
I00
S'\x00\x00\xc0?\x00\x00\x0c?\x00\x00\x0c?'
tbsV5765dc0dbc8c02a4c862563eac4950ef
p2410
g3
(g4
(I0
tS'b'
tRp2411
(I1
(I3
tg7
I00
S'\x00d\xe6?\x00\x00/?\x00\x00/?'
tbsV5d801b07718dc9a1ad2bf701523a0f74
p2412
g3
(g4
(I0
tS'b'
tRp2413
(I1
(I3
tg7
I00
S'\x00f\xe6?\x00\x80\x1c?\x00\x80\x1c?'
tbsV3aedb9550977ed35e7d44555207ef739
p2414
g3
(g4
(I0
tS'b'
tRp2415
(I1
(I3
tg7
I00
S'\x00\x00\x00@\x04\x00\x1b?\x04\x00\x1b?'
tbsV56d38d6863fd160da38b15bf12f0ed64
p2416
g3
(g4
(I0
tS'b'
tRp2417
(I1
(I3
tg7
I00
S'\x00\x00\x00@\x04\x00C?\x04\x00C?'
tbsV60638c0dcee9e5adfcac3b4f57d1366f
p2418
g3
(g4
(I0
tS'b'
tRp2419
(I1
(I3
tg7
I00
S'\x00\x00\x00@\x00\x004?\x00\x004?'
tbsVc31e3540b227a1a2b08593094609ece2
p2420
g3
(g4
(I0
tS'b'
tRp2421
(I1
(I3
tg7
I00
S'\x00\x00 @\xfa\x7f5?\xfa\x7f5?'
tbsV31e82ed2c875eae8dfbfd70ac440458a
p2422
g3
(g4
(I0
tS'b'
tRp2423
(I1
(I3
tg7
I00
S'\x00\x00\x00@\x87\x16\x19?\x87\x16\x19?'
tbsVe4ff18b33b7110a64f497e177102f23d
p2424
g3
(g4
(I0
tS'b'
tRp2425
(I1
(I3
tg7
I00
S'\x00\x00 @\xf8\xff)?\xf8\xff)?'
tbsV10aa518193fa5b89b305a806d1dfb150
p2426
g3
(g4
(I0
tS'b'
tRp2427
(I1
(I3
tg7
I00
S'\x00\x00\x00@\x00\x00\x17?\x00\x00\x17?'
tbsVa6efbb642c60022fe194da17d71a7fb3
p2428
g3
(g4
(I0
tS'b'
tRp2429
(I1
(I3
tg7
I00
S'\x00\x00\x00@\xf8\xff)?\xf8\xff)?'
tbsVa4fa7dd73e3017b97ac6674a10fac216
p2430
g3
(g4
(I0
tS'b'
tRp2431
(I1
(I3
tg7
I00
S'\x00\x00\x80?\x00\x00H?\x00\x00H?'
tbsVa853993fd839a0ee61f2ca73c4e497a6
p2432
g3
(g4
(I0
tS'b'
tRp2433
(I1
(I3
tg7
I00
S'\x00\x00\xa0?\x00\x004?\x00\x004?'
tbsV8bb7dd5fbfa5ecb95552d9c587f2fea5
p2434
g3
(g4
(I0
tS'b'
tRp2435
(I1
(I3
tg7
I00
S'\x00\x00 @\x08\x00\x16?\x08\x00\x16?'
tbsV359951e3d2768249211361665b99b735
p2436
g3
(g4
(I0
tS'b'
tRp2437
(I1
(I3
tg7
I00
S'\x00\x00\x00@\xe9&\x11?\xe9&\x11?'
tbsV89fbce8f7fe8ecc1bf7067a292c7ab2d
p2438
g3
(g4
(I0
tS'b'
tRp2439
(I1
(I3
tg7
I00
S'\x00\x00\x00@\x00\x00\x0c?\x00\x00\x0c?'
tbsV28a9b77a9113ce491433d3ea47fa8fc9
p2440
g3
(g4
(I0
tS'b'
tRp2441
(I1
(I3
tg7
I00
S'\x00\x00\x00@\x00\x00\x1d?\x00\x00\x1d?'
tbsV78459ff46c9f3b3fa26be2a467515c7e
p2442
g3
(g4
(I0
tS'b'
tRp2443
(I1
(I3
tg7
I00
S'\x00\x00 @\x00\x004?\x00\x004?'
tbsV6fd582d25eeb2250c2b0996c4216deb9
p2444
g3
(g4
(I0
tS'b'
tRp2445
(I1
(I3
tg7
I00
S'\x00\x00 @\x04\x00/?\x04\x00/?'
tbsV7fb1c8ffd78ca4b6869044251add36b4
p2446
g3
(g4
(I0
tS'b'
tRp2447
(I1
(I3
tg7
I00
S'\x00\x00\x00@/\xdd$?/\xdd$?'
tbsV4a1391269629d20359325873d11413c9
p2448
g3
(g4
(I0
tS'b'
tRp2449
(I1
(I3
tg7
I00
S'\x00\x00\xc0?/\xdd$?/\xdd$?'
tbsV60018d051926d01b38dd16e44159610c
p2450
g3
(g4
(I0
tS'b'
tRp2451
(I1
(I3
tg7
I00
S'\x00\x00\xa0?\x00\x00\x18?\x00\x00\x18?'
tbsVfe5c37e82b412833b8ad0abb57978377
p2452
g3
(g4
(I0
tS'b'
tRp2453
(I1
(I3
tg7
I00
S'\x00\x00\xa0?\xfc\xff\x10?\xfc\xff\x10?'
tbsV7c02c641324c598cd935b588189c87db
p2454
g3
(g4
(I0
tS'b'
tRp2455
(I1
(I3
tg7
I00
S'\x00\x00\x00@\x01\x00\x17?\x01\x00\x17?'
tbsVd3bc6721c1b0830137515e9c0c31612b
p2456
g3
(g4
(I0
tS'b'
tRp2457
(I1
(I3
tg7
I00
S'\x00\x00 @\x00\x004?\x00\x004?'
tbsV4dade0813da186d968b4b8c4952cbb0c
p2458
g3
(g4
(I0
tS'b'
tRp2459
(I1
(I3
tg7
I00
S'\x00\x00 @\x00\x004?\x00\x004?'
tbsVac4e4bd5633dd74c99762acdba21934f
p2460
g3
(g4
(I0
tS'b'
tRp2461
(I1
(I3
tg7
I00
S'\x00\x00\x00@\xfa\x7f\t?\xfa\x7f\t?'
tbsV5ade88428e6463fa212d4c287228e8ed
p2462
g3
(g4
(I0
tS'b'
tRp2463
(I1
(I3
tg7
I00
S'\x00\x00\xc0?\x00\x00:?\x00\x00:?'
tbsV3d4e602819dca0f5eb48953841ff11d6
p2464
g3
(g4
(I0
tS'b'
tRp2465
(I1
(I3
tg7
I00
S'\x00\x00\x00@\x06\x80*?\x06\x80*?'
tbsVbdfb2c23a8c1dca5ea8c1cc3d89efee9
p2466
g3
(g4
(I0
tS'b'
tRp2467
(I1
(I3
tg7
I00
S'\x00\x00\x00@\xff\xff$?\xff\xff$?'
tbsVb6687898fe385b68d5ae341419ef3fdd
p2468
g3
(g4
(I0
tS'b'
tRp2469
(I1
(I3
tg7
I00
S'\x00\x00\xa0?\x02\x807?\x02\x807?'
tbsV882107a204c302e27628f85522baea49
p2470
g3
(g4
(I0
tS'b'
tRp2471
(I1
(I3
tg7
I00
S'\x00\x00\x00@\x06\x80\x1a?\x06\x80\x1a?'
tbsV665ca5ce18dd06722a4c4436a85246b2
p2472
g3
(g4
(I0
tS'b'
tRp2473
(I1
(I3
tg7
I00
S'\x00\x00\x00@\x00\x00*?\x00\x00*?'
tbsV04cfc5efa4c8c2a8944c8b9fa6cb04d1
p2474
g3
(g4
(I0
tS'b'
tRp2475
(I1
(I3
tg7
I00
S'\x00\x00\x00@\x00\x007?\x00\x007?'
tbsVf725f46908f16062fd12c141eb47c6a7
p2476
g3
(g4
(I0
tS'b'
tRp2477
(I1
(I3
tg7
I00
S'\x00\x00 @\xfc\xff$?\xfc\xff$?'
tbsVfa744c0374ccc6aaf6711f463a9e5bc2
p2478
g3
(g4
(I0
tS'b'
tRp2479
(I1
(I3
tg7
I00
S'\x00\x00\x00@\x00\x00F?\x00\x00F?'
tbsVf447ac9884a349a4ae56326cf680ae18
p2480
g3
(g4
(I0
tS'b'
tRp2481
(I1
(I3
tg7
I00
S"\x00\x00\x00@\x02\x80'?\x02\x80'?"
tbsV4baa552f3a11782f39e16b345d401fb8
p2482
g3
(g4
(I0
tS'b'
tRp2483
(I1
(I3
tg7
I00
S'\x00\x00\xc0?\x00\x00N?\x00\x00N?'
tbsV65a380c07d416f78e85545eaaa2916a1
p2484
g3
(g4
(I0
tS'b'
tRp2485
(I1
(I3
tg7
I00
S'\x00\x00\xa0?\x06\x80*?\x06\x80*?'
tbsVcb64ff663195832e0b66a9bb17891954
p2486
g3
(g4
(I0
tS'b'
tRp2487
(I1
(I3
tg7
I00
S'\x00\x88\xe6?\x85\xebQ?\x85\xebQ?'
tbsV302336ac736ed66077456775a0a99adc
p2488
g3
(g4
(I0
tS'b'
tRp2489
(I1
(I3
tg7
I00
S'\x00\x00\x00@\x00\x00*?\x00\x00*?'
tbsV55b06d60e7c0329787f81d1b7cbf9aa0
p2490
g3
(g4
(I0
tS'b'
tRp2491
(I1
(I3
tg7
I00
S'\x00\x00 @\xf8\xff)?\xf8\xff)?'
tbsV5b412509bc40a3aeb3b5efef1fdfcfc9
p2492
g3
(g4
(I0
tS'b'
tRp2493
(I1
(I3
tg7
I00
S'\x00\x00\x00@\x00\x004?\x00\x004?'
tbsV44988c6efa451e8d496188cb30669d44
p2494
g3
(g4
(I0
tS'b'
tRp2495
(I1
(I3
tg7
I00
S'\x00\x00\x00@\xfa\x7f1?\xfa\x7f1?'
tbsVd4e5c5bf1871b85914168ea12ed579a3
p2496
g3
(g4
(I0
tS'b'
tRp2497
(I1
(I3
tg7
I00
S'\x00\x00 @\x04\x00/?\x04\x00/?'
tbsV7b24367c58f1737e901dde9a934d1eb1
p2498
g3
(g4
(I0
tS'b'
tRp2499
(I1
(I3
tg7
I00
S'\x00\x00 @\x08\x00>?\x08\x00>?'
tbsVa93362de52065e73e6882f0cb668d637
p2500
g3
(g4
(I0
tS'b'
tRp2501
(I1
(I3
tg7
I00
S'\x00\x00\x00@\x00\x00 ?\x00\x00 ?'
tbsV77941d758eae521a00ef225e306eda08
p2502
g3
(g4
(I0
tS'b'
tRp2503
(I1
(I3
tg7
I00
S'\x00f\xe6?\xff\xff8?\xff\xff8?'
tbsV750680cce371800ea26576b694b32dc8
p2504
g3
(g4
(I0
tS'b'
tRp2505
(I1
(I3
tg7
I00
S'\x00f\xe6?\x00\x00/?\x00\x00/?'
tbsV3d5351d09a432a8de88e5b270d419ebf
p2506
g3
(g4
(I0
tS'b'
tRp2507
(I1
(I3
tg7
I00
S'\x00D\xe6?u\x938?u\x938?'
tbsV77033e4c1591403d1b1255607a20a983
p2508
g3
(g4
(I0
tS'b'
tRp2509
(I1
(I3
tg7
I00
S'\x00\x00 @\x04\x00/?\x04\x00/?'
tbsV56995718fdd0a0549d0e7f11eb307f34
p2510
g3
(g4
(I0
tS'b'
tRp2511
(I1
(I3
tg7
I00
S'\x00g\xe6?\xff\xff\x10?\xff\xff\x10?'
tbsVd9543b86db1c662ebaa71557e715861c
p2512
g3
(g4
(I0
tS'b'
tRp2513
(I1
(I3
tg7
I00
S'\x00\x00 @\xfc\xff8?\xfc\xff8?'
tbsV820dd342da11af3a062d1647b3736fdd
p2514
g3
(g4
(I0
tS'b'
tRp2515
(I1
(I3
tg7
I00
S'\x00\x00@?\x00\x00??\x00\x00??'
tbsV95a98df466d4f6c6689908ea9a8f324b
p2516
g3
(g4
(I0
tS'b'
tRp2517
(I1
(I3
tg7
I00
S'\x00f\xe6?\x00\x008?\x00\x008?'
tbsVccff3e86a50624e30c22d674f3b0f9aa
p2518
g3
(g4
(I0
tS'b'
tRp2519
(I1
(I3
tg7
I00
S'\x00\x00\xa0?\x04\x00+?\x04\x00+?'
tbsVdf761dd787bfc439890740ccce934f36
p2520
g3
(g4
(I0
tS'b'
tRp2521
(I1
(I3
tg7
I00
S'\x00\x00\x00@\x04\x00/?\x04\x00/?'
tbsV348a53f500ada390ddd00cc47d310b2c
p2522
g3
(g4
(I0
tS'b'
tRp2523
(I1
(I3
tg7
I00
S'\x00f\xe6?\x00\x00*?\x00\x00*?'
tbsV9e98136d07b953c3362e0a132c8810b6
p2524
g3
(g4
(I0
tS'b'
tRp2525
(I1
(I3
tg7
I00
S'\x00x\xd9?\xa8\xc6\x0b?\xa8\xc6\x0b?'
tbsVc02daa2116b27ce9b023fe7809ef5be9
p2526
g3
(g4
(I0
tS'b'
tRp2527
(I1
(I3
tg7
I00
S'\x00\x00 @\x06\x80\x12?\x06\x80\x12?'
tbsV627836151c555187503dfe472fb15001
p2528
g3
(g4
(I0
tS'b'
tRp2529
(I1
(I3
tg7
I00
S'\x00\x00 @\xfc\xff8?\xfc\xff8?'
tbsV19bb6a9bc007ad75a4777e5298354cb4
p2530
g3
(g4
(I0
tS'b'
tRp2531
(I1
(I3
tg7
I00
S'\x00\x00\xa0?\xfc\xff\x0c?\xfc\xff\x0c?'
tbsVf3eafe72b1e9528116f3c430ab73a2ae
p2532
g3
(g4
(I0
tS'b'
tRp2533
(I1
(I3
tg7
I00
S'\x00f\xe6?\x00\x00/?\x00\x00/?'
tbsVd753676c2c6c8ac6f97bd61ecab7554a
p2534
g3
(g4
(I0
tS'b'
tRp2535
(I1
(I3
tg7
I00
S'\x00\x00\x00@\x04\x00/?\x04\x00/?'
tbsVeda58f4918c4b506cd156702bf8a56a3
p2536
g3
(g4
(I0
tS'b'
tRp2537
(I1
(I3
tg7
I00
S'\x00\x00 @\xfc\xff\x10?\xfc\xff\x10?'
tbsV380eb569a5750648434cc8ae8da4a0a9
p2538
g3
(g4
(I0
tS'b'
tRp2539
(I1
(I3
tg7
I00
S'\x00\x00 @\x08\x00\x16?\x08\x00\x16?'
tbsV2a2300103f80aadbfac57516d9a95365
p2540
g3
(g4
(I0
tS'b'
tRp2541
(I1
(I3
tg7
I00
S'\x00\x00\x00@\x00\x004?\x00\x004?'
tbsVe2a7eaebd0830061e77690aa48f11936
p2542
g3
(g4
(I0
tS'b'
tRp2543
(I1
(I3
tg7
I00
S'\x00f\xe6?\x00\x00\x0f?\x00\x00\x0f?'
tbsV657dc5d2bf8ea210d912dd8320481068
p2544
g3
(g4
(I0
tS'b'
tRp2545
(I1
(I3
tg7
I00
S'\x00\x00\xa0?\x00\x00 ?\x00\x00 ?'
tbsVe709901da9ba15a95d4a29906edc01dd
p2546
g3
(g4
(I0
tS'b'
tRp2547
(I1
(I3
tg7
I00
S'\x00\x00\x00@\xf8\xff)?\xf8\xff)?'
tbsV6629e23c3bdc8dc8161b3caa8a6048c1
p2548
g3
(g4
(I0
tS'b'
tRp2549
(I1
(I3
tg7
I00
S'\x00\x00\x00@\xfc\xff,?\xfc\xff,?'
tbsVaa55708fcc8bf27b605bcd2fca0dc991
p2550
g3
(g4
(I0
tS'b'
tRp2551
(I1
(I3
tg7
I00
S'\x00\x00\x00@\x00\x001?\x00\x001?'
tbsV5ab68460985d9ed8e952475b402ddd62
p2552
g3
(g4
(I0
tS'b'
tRp2553
(I1
(I3
tg7
I00
S'\x00\x00\x00@\xf8\xff)?\xf8\xff)?'
tbsVeb9db3f740f8e153e85f83c57bc4e522
p2554
g3
(g4
(I0
tS'b'
tRp2555
(I1
(I3
tg7
I00
S'\x00\x00\xa0?\x08\x00>?\x08\x00>?'
tbsV7367ede966b44c6dce30b83345785671
p2556
g3
(g4
(I0
tS'b'
tRp2557
(I1
(I3
tg7
I00
S'\x00\x00\xa0?\x00\x00\x0c?\x00\x00\x0c?'
tbsV521924ac2f00a62cc63f679de7e599cd
p2558
g3
(g4
(I0
tS'b'
tRp2559
(I1
(I3
tg7
I00
S'\x00\x00\x00@Zd\x1b?Zd\x1b?'
tbsV8f517521a2ed576e853fab1907fa5ffd
p2560
g3
(g4
(I0
tS'b'
tRp2561
(I1
(I3
tg7
I00
S'\x00\x00\x00@\x08\x00>?\x08\x00>?'
tbsV90604d9cce6ab054664c8efa7ce61b20
p2562
g3
(g4
(I0
tS'b'
tRp2563
(I1
(I3
tg7
I00
S'\x00\x00 @\xf8\xff\x19?\xf8\xff\x19?'
tbsVdd571c3949cdae0b59fc0542bb23e06a
p2564
g3
(g4
(I0
tS'b'
tRp2565
(I1
(I3
tg7
I00
S'\x00\x989?\x00\x00 ?\x00\x00 ?'
tbsV80588b9231bb4fb7e1cddc9321d12e76
p2566
g3
(g4
(I0
tS'b'
tRp2567
(I1
(I3
tg7
I00
S'\x00\x00\xc0?\x00\x00\x1b?\x00\x00\x1b?'
tbsVe92a2ed80510513497d5252b001cfa3e
p2568
g3
(g4
(I0
tS'b'
tRp2569
(I1
(I3
tg7
I00
S'\x00\x00\x00@\xfc\xff,?\xfc\xff,?'
tbsV3457880b1a66030feb8adaed6da805af
p2570
g3
(g4
(I0
tS'b'
tRp2571
(I1
(I3
tg7
I00
S'\x00\x00 ?\x00\x00"?\x00\x00"?'
tbsV8f0d9699a15acef00da458eceaf0c846
p2572
g3
(g4
(I0
tS'b'
tRp2573
(I1
(I3
tg7
I00
S'\x80f\xe6?\x00\x00\xff>\x00\x00\xff>'
tbsVffe02fe7d2223743f7fb455dfaff3842
p2574
g3
(g4
(I0
tS'b'
tRp2575
(I1
(I3
tg7
I00
S'\x00\x00\x00@\x00\x00H?\x00\x00H?'
tbsV026be5d5e652b6a7488669d884ebe297
p2576
g3
(g4
(I0
tS'b'
tRp2577
(I1
(I3
tg7
I00
S'\x00\x00 @\x08\x00\x16?\x08\x00\x16?'
tbsVbc38f78d1194f57452f6bb5eed453137
p2578
g3
(g4
(I0
tS'b'
tRp2579
(I1
(I3
tg7
I00
S'\x00\x00 @\xfc\xff\x10?\xfc\xff\x10?'
tbsVeb8d5136918d6859ca3cc3abafe369ac
p2580
g3
(g4
(I0
tS'b'
tRp2581
(I1
(I3
tg7
I00
S'\x00\x00\x00@\x00\x004?\x00\x004?'
tbsV44cd94d1228f4a70753b5dfc12703414
p2582
g3
(g4
(I0
tS'b'
tRp2583
(I1
(I3
tg7
I00
S'\x00\x00\x00@\x00\x00 ?\x00\x00 ?'
tbsVd9a2bea7df4a888313374beb142cf9c0
p2584
g3
(g4
(I0
tS'b'
tRp2585
(I1
(I3
tg7
I00
S'@\x00\x00@\xf8\xff)?\xf8\xff)?'
tbsV7dbc5207b9ec1a1921cc2f03f9b37684
p2586
g3
(g4
(I0
tS'b'
tRp2587
(I1
(I3
tg7
I00
S'\x00\x00 @\x08\x00\x16?\x08\x00\x16?'
tbsVe1584618a0c72f124fe618e1ed9b3e55
p2588
g3
(g4
(I0
tS'b'
tRp2589
(I1
(I3
tg7
I00
S'\x00\x00\xa0?\x00\x004?\x00\x004?'
tbsV933cc0dec1c737d9654820453ce64284
p2590
g3
(g4
(I0
tS'b'
tRp2591
(I1
(I3
tg7
I00
S'\x00\x00 @\x00\x00 ?\x00\x00 ?'
tbsVd73264d2c4f71ef6bf8593ac55565d93
p2592
g3
(g4
(I0
tS'b'
tRp2593
(I1
(I3
tg7
I00
S'\x00\x00\x00@\x00\x00*?\x00\x00*?'
tbsV6857c76be618bb0ddced5f4fecc1695f
p2594
g3
(g4
(I0
tS'b'
tRp2595
(I1
(I3
tg7
I00
S'\x00\x00\xa0?\x04\x00\x07?\x04\x00\x07?'
tbsV335b129aacabdf9269b0bb12f148d15c
p2596
g3
(g4
(I0
tS'b'
tRp2597
(I1
(I3
tg7
I00
S'\x00\x00\x00@\x00\x80*?\x00\x80*?'
tbsVc3a9046fbe2b0f0a4e43a669c321e472
p2598
g3
(g4
(I0
tS'b'
tRp2599
(I1
(I3
tg7
I00
S'\x00\x00\x00@\x01\x00/?\x01\x00/?'
tbsVa7411bdc623413af46a30bd9d2c41066
p2600
g3
(g4
(I0
tS'b'
tRp2601
(I1
(I3
tg7
I00
S'\x00\x00 @\x00\x00,?\x00\x00,?'
tbsV0030a160d58723ff36d73f41b170ec21
p2602
g3
(g4
(I0
tS'b'
tRp2603
(I1
(I3
tg7
I00
S'\x00\x00\xa0?\xfc\xff\x14?\xfc\xff\x14?'
tbsVc2bdfb6ab5192656b397459648221918
p2604
g3
(g4
(I0
tS'b'
tRp2605
(I1
(I3
tg7
I00
S'\x00\x00 @\x00\x004?\x00\x004?'
tbsVbfb3e2d11c149036bbe12566ef6b933c
p2606
g3
(g4
(I0
tS'b'
tRp2607
(I1
(I3
tg7
I00
S'\x00x\xd9?V\x0eM?V\x0eM?'
tbsVdbcb3dbee4f4e75d0672c2a23feb1e3a
p2608
g3
(g4
(I0
tS'b'
tRp2609
(I1
(I3
tg7
I00
S'\x00\x00\x00@\xcb\xa1%?\xcb\xa1%?'
tbsV934bc93ae41ee1d98c7c44d483327f8d
p2610
g3
(g4
(I0
tS'b'
tRp2611
(I1
(I3
tg7
I00
S'\x00\x00\x00@\xfc\xff8?\xfc\xff8?'
tbsV8369f716ca2d51c934e7f6d44cb156e9
p2612
g3
(g4
(I0
tS'b'
tRp2613
(I1
(I3
tg7
I00
S'\x00\x00\x00@\xf8\xff)?\xf8\xff)?'
tbsV375a52b012066845a2eeb5032a92fc6b
p2614
g3
(g4
(I0
tS'b'
tRp2615
(I1
(I3
tg7
I00
S'\x00\x00\x00@\x04\x00;?\x04\x00;?'
tbsVeb008af181f3791fdce2376cf4773733
p2616
g3
(g4
(I0
tS'b'
tRp2617
(I1
(I3
tg7
I00
S'\x00\x00\x00@\x00\x00%?\x00\x00%?'
tbsV55d88980822c2e5d39b3d0ec172fa101
p2618
g3
(g4
(I0
tS'b'
tRp2619
(I1
(I3
tg7
I00
S'\x00\x00 @\x00\x004?\x00\x004?'
tbsVf7cdd95c94818875ece1175561025038
p2620
g3
(g4
(I0
tS'b'
tRp2621
(I1
(I3
tg7
I00
S'\x00\x00\x00@P\x8d7?P\x8d7?'
tbsV4af17bcb31669a9eab0b6ef8e22a8dcf
p2622
g3
(g4
(I0
tS'b'
tRp2623
(I1
(I3
tg7
I00
S'\x00\x00 @\x04\x00/?\x04\x00/?'
tbsVa83542b34be44586e8c9f96f4fa180da
p2624
g3
(g4
(I0
tS'b'
tRp2625
(I1
(I3
tg7
I00
S'\x00\x00\x00@\xff\xff\x10?\xff\xff\x10?'
tbsV65dd5d9d5b894e5f0ac3bd6c1384c46a
p2626
g3
(g4
(I0
tS'b'
tRp2627
(I1
(I3
tg7
I00
S'\x00\x00 @\x00\x00 ?\x00\x00 ?'
tbsV21b73c938fd7d346ee77a60bd60aaeac
p2628
g3
(g4
(I0
tS'b'
tRp2629
(I1
(I3
tg7
I00
S'\x00f\xe6?\xff\xff\x10?\xff\xff\x10?'
tbsVafc15e047f3e127871d13e39cde7557d
p2630
g3
(g4
(I0
tS'b'
tRp2631
(I1
(I3
tg7
I00
S'\x00\x00 @\x04\x00\x1b?\x04\x00\x1b?'
tbsV031b7ec4fe96a3b035a8196264a8c8c3
p2632
g3
(g4
(I0
tS'b'
tRp2633
(I1
(I3
tg7
I00
S'\x00\x00 @\x00\x00H?\x00\x00H?'
tbsV748bc72733efdabb4c239afb612bf7d5
p2634
g3
(g4
(I0
tS'b'
tRp2635
(I1
(I3
tg7
I00
S'\x00\x00 @\x08\x00>?\x08\x00>?'
tbsV591f6b47c1362410e7f4c13afbc99d79
p2636
g3
(g4
(I0
tS'b'
tRp2637
(I1
(I3
tg7
I00
S'\x00\x00\x00@\x00\x80\x15?\x00\x80\x15?'
tbsVfdcd385b0d2d12341661e1abe845be0b
p2638
g3
(g4
(I0
tS'b'
tRp2639
(I1
(I3
tg7
I00
S'\x00\x00 @\x06\x80*?\x06\x80*?'
tbsV93a6f37a72f60498986374f57bfc30c4
p2640
g3
(g4
(I0
tS'b'
tRp2641
(I1
(I3
tg7
I00
S'\x00\x00 ?\xf8\xffI?\xf8\xffI?'
tbsV608202eb3c368512e55e9e339a203790
p2642
g3
(g4
(I0
tS'b'
tRp2643
(I1
(I3
tg7
I00
S'\x00\x00\xc0?\x00\x80\x0b?\x00\x80\x0b?'
tbsVa79023a82079a7431ef2496acbef29de
p2644
g3
(g4
(I0
tS'b'
tRp2645
(I1
(I3
tg7
I00
S'\x00\x00\x00@\x00\x00 ?\x00\x00 ?'
tbsV38bf066bba822584e14c0af65d4bb5e9
p2646
g3
(g4
(I0
tS'b'
tRp2647
(I1
(I3
tg7
I00
S'\x00\x00\x00@\x00\x00\x16?\x00\x00\x16?'
tbsVa34714908825a61a229bf1457c21ff1f
p2648
g3
(g4
(I0
tS'b'
tRp2649
(I1
(I3
tg7
I00
S'\x00\x00\xa0?\x00\x004?\x00\x004?'
tbsV4b28f147cb82baba3edcdbd34ca19085
p2650
g3
(g4
(I0
tS'b'
tRp2651
(I1
(I3
tg7
I00
S'\x00\x00\x00@\x9c\xc4 ?\x9c\xc4 ?'
tbsV4f1573f5cab1aaaebff33287682c5fbd
p2652
g3
(g4
(I0
tS'b'
tRp2653
(I1
(I3
tg7
I00
S'\x00\x00\x00@\x00\x00\x18?\x00\x00\x18?'
tbsV6997b392b28529c9ab67add45055fcf7
p2654
g3
(g4
(I0
tS'b'
tRp2655
(I1
(I3
tg7
I00
S'\x00\x00\x00@\x00\x00\x11?\x00\x00\x11?'
tbsV8d5c4cc78e964463699c19003be70851
p2656
g3
(g4
(I0
tS'b'
tRp2657
(I1
(I3
tg7
I00
S'\x00\x00\x00@\xd5x)?\xd5x)?'
tbsV0679e5fd67b7441b8094494033f3881f
p2658
g3
(g4
(I0
tS'b'
tRp2659
(I1
(I3
tg7
I00
S'\x00\x00 @\x00\x00 ?\x00\x00 ?'
tbsVeacb38abacf1214f3b456b6c9fa78697
p2660
g3
(g4
(I0
tS'b'
tRp2661
(I1
(I3
tg7
I00
S'\x00f\xe6?\x00\x80\x11?\x00\x80\x11?'
tbsV88be713eb83cec7d31c4553ca05b2019
p2662
g3
(g4
(I0
tS'b'
tRp2663
(I1
(I3
tg7
I00
S'\x00g\xe6?\x00\x00%?\x00\x00%?'
tbsV197e035d3aed52b5a2a0de3ee4d5fcea
p2664
g3
(g4
(I0
tS'b'
tRp2665
(I1
(I3
tg7
I00
S'\x00\x00 @\xfc\xff\x0c?\xfc\xff\x0c?'
tbsV80938b4f531fa2334c13d829339e1356
p2666
g3
(g4
(I0
tS'b'
tRp2667
(I1
(I3
tg7
I00
S'\x00\x00\x00@\x1f\x85\x0b?\x1f\x85\x0b?'
tbsVa6b7aa6b98dd87cf75a5e1f707369832
p2668
g3
(g4
(I0
tS'b'
tRp2669
(I1
(I3
tg7
I00
S'\x00\x00 @\xf8\xff\x01?\xf8\xff\x01?'
tbsV25196c504274d166e81c745d32f30c72
p2670
g3
(g4
(I0
tS'b'
tRp2671
(I1
(I3
tg7
I00
S'\x00g\xe6?\x00\x004?\x00\x004?'
tbsVa2f41e283f3c797e85c0b9d63453b365
p2672
g3
(g4
(I0
tS'b'
tRp2673
(I1
(I3
tg7
I00
S'\x00\x00\xc0?\x00\x00+?\x00\x00+?'
tbsVbccbc10909a55c0f654719e8839f530a
p2674
g3
(g4
(I0
tS'b'
tRp2675
(I1
(I3
tg7
I00
S'\x00f\xe6?\x00\x00\x1d?\x00\x00\x1d?'
tbsV3b908e86ea0f7cbd05dd8e0ea6d45d79
p2676
g3
(g4
(I0
tS'b'
tRp2677
(I1
(I3
tg7
I00
S'\x00\x00\xc0?\x00\x00H?\x00\x00H?'
tbsV4d86e1657d46b9ee44c2c434fad231ce
p2678
g3
(g4
(I0
tS'b'
tRp2679
(I1
(I3
tg7
I00
S'\x00\xbc\xd9?\x87\x169?\x87\x169?'
tbsVfbae4d04285789dfa32124c86586dd09
p2680
g3
(g4
(I0
tS'b'
tRp2681
(I1
(I3
tg7
I00
S'\x00\x00\x00@\x00\x00<?\x00\x00<?'
tbsV1ddb5d17d9db61c8ea0fd58d00df05ef
p2682
g3
(g4
(I0
tS'b'
tRp2683
(I1
(I3
tg7
I00
S'\x00\x00 @\x08\x00\x16?\x08\x00\x16?'
tbsVf467795ce3b50a771085d79ae8d29ecc
p2684
g3
(g4
(I0
tS'b'
tRp2685
(I1
(I3
tg7
I00
S'\x00f\xe6?\x00\x009?\x00\x009?'
tbsVf7c387290d7e3074501eac167c849000
p2686
g3
(g4
(I0
tS'b'
tRp2687
(I1
(I3
tg7
I00
S'\x00\x00\x00@\x00\x80\x12?\x00\x80\x12?'
tbsV8601f5424bcf4cd8e7bc3d649e9995a2
p2688
g3
(g4
(I0
tS'b'
tRp2689
(I1
(I3
tg7
I00
S'\x00\x00 @\xfc\xff\x10?\xfc\xff\x10?'
tbsV2f4e4a808cfb348d6ddc81de96f72077
p2690
g3
(g4
(I0
tS'b'
tRp2691
(I1
(I3
tg7
I00
S'\x00\x00\x00@\xbe\x9f\x1a?\xbe\x9f\x1a?'
tbsV39c404ac6b5852fc8ff00d34bd35294f
p2692
g3
(g4
(I0
tS'b'
tRp2693
(I1
(I3
tg7
I00
S'\x00f\xe6?\x00\x00\x15?\x00\x00\x15?'
tbsVa8e650f8494e894be06c9cee08702aa9
p2694
g3
(g4
(I0
tS'b'
tRp2695
(I1
(I3
tg7
I00
S'\x00\x00 @\x06\x80B?\x06\x80B?'
tbsVb4d5b618fdf3a5a1bcfb325a3715e99e
p2696
g3
(g4
(I0
tS'b'
tRp2697
(I1
(I3
tg7
I00
S'\x00\x00 @\xf8\xff)?\xf8\xff)?'
tbsV502d4601458807bf0089e6fd07825357
p2698
g3
(g4
(I0
tS'b'
tRp2699
(I1
(I3
tg7
I00
S'\x00\x00 @\xf8\xff)?\xf8\xff)?'
tbsV642c43727eee4bda71c0c30bf5cf1a2b
p2700
g3
(g4
(I0
tS'b'
tRp2701
(I1
(I3
tg7
I00
S'\x00\x00 @\x08\x00\x1e?\x08\x00\x1e?'
tbsV60b389fb2f7eeb912586d1a3ccc9dbbc
p2702
g3
(g4
(I0
tS'b'
tRp2703
(I1
(I3
tg7
I00
S'\x00\x00 @\xfe\x7f8?\xfe\x7f8?'
tbsV7ce310b8431ace09a91ededcc03f7361
p2704
g3
(g4
(I0
tS'b'
tRp2705
(I1
(I3
tg7
I00
S'\x00\x00 @\xfc\xff$?\xfc\xff$?'
tbsVea01deecde93cd9503a049d71d46e6d5
p2706
g3
(g4
(I0
tS'b'
tRp2707
(I1
(I3
tg7
I00
S'\x00\x00\x00@\x00\x004?\x00\x004?'
tbsVdf015da931ad5312ee7b24b201b67478
p2708
g3
(g4
(I0
tS'b'
tRp2709
(I1
(I3
tg7
I00
S'\x00\x00\x00@\xbe\x9f\x1a?\xbe\x9f\x1a?'
tbsVcc1bf5250466173086887675dff499c3
p2710
g3
(g4
(I0
tS'b'
tRp2711
(I1
(I3
tg7
I00
S'\x00\x00 @\x08\x00>?\x08\x00>?'
tbsV4b5970e5edc0d8389cabc6bc5d84265f
p2712
g3
(g4
(I0
tS'b'
tRp2713
(I1
(I3
tg7
I00
S'\x00g\xe6?\x00\x004?\x00\x004?'
tbsV5b642ed9150bac6cbd58a46ed8349afc
p2714
g3
(g4
(I0
tS'b'
tRp2715
(I1
(I3
tg7
I00
S'\x00\x00\xa0?\x00\x004?\x00\x004?'
tbsVa0e60d7a13f6bb4002cc4a08e60b0776
p2716
g3
(g4
(I0
tS'b'
tRp2717
(I1
(I3
tg7
I00
S'\x00\x00 @\xfc\xff8?\xfc\xff8?'
tbsV4cd70a98baca46b116071b32788d3c2d
p2718
g3
(g4
(I0
tS'b'
tRp2719
(I1
(I3
tg7
I00
S'\x00h\xa6?\x00\x80\x0c?\x00\x80\x0c?'
tbsV4001d754871a8da824b8444e32dc6e0f
p2720
g3
(g4
(I0
tS'b'
tRp2721
(I1
(I3
tg7
I00
S'\x00\x00 @\x00\x00 ?\x00\x00 ?'
tbsV95edad4544e59e37188dd33db40cecb7
p2722
g3
(g4
(I0
tS'b'
tRp2723
(I1
(I3
tg7
I00
S'\x00\x00\xa0?\x08\x00\x1e?\x08\x00\x1e?'
tbsVbb0a8375885408a7adbd7c941098548f
p2724
g3
(g4
(I0
tS'b'
tRp2725
(I1
(I3
tg7
I00
S'\x00\x00 @\xfe\x7f\x1c?\xfe\x7f\x1c?'
tbsV95a27273c11db8bfb9fc27b1e64de6bd
p2726
g3
(g4
(I0
tS'b'
tRp2727
(I1
(I3
tg7
I00
S'\x00\x00\x00@\x00\x00 ?\x00\x00 ?'
tbsV1fb4887efd403cd9c0f6970fc8b679b5
p2728
g3
(g4
(I0
tS'b'
tRp2729
(I1
(I3
tg7
I00
S'\x00\x00\x80?\x00\x00\x15?\x00\x00\x15?'
tbsV85d59b470b927e825937ea3483571c6d
p2730
g3
(g4
(I0
tS'b'
tRp2731
(I1
(I3
tg7
I00
S'\x00d\xe6?\x00\x00\x1d?\x00\x00\x1d?'
tbsVd991b1760fb8705de655a1da068f7a6a
p2732
g3
(g4
(I0
tS'b'
tRp2733
(I1
(I3
tg7
I00
S'\x00\x00\x00@\x00\x00 ?\x00\x00 ?'
tbsV39c3a2d2ca67bc7a1a22240ea571d50c
p2734
g3
(g4
(I0
tS'b'
tRp2735
(I1
(I3
tg7
I00
S'\x00\x00\x00@\x00\x004?\x00\x004?'
tbsV0700108170c91ea2219006e9484999ef
p2736
g3
(g4
(I0
tS'b'
tRp2737
(I1
(I3
tg7
I00
S'\x00\x00 @\xf8\xff)?\xf8\xff)?'
tbsV9759a365f7a8b828e964b0a53cc2daf8
p2738
g3
(g4
(I0
tS'b'
tRp2739
(I1
(I3
tg7
I00
S'\x00\x00\x00@\x04\x00/?\x04\x00/?'
tbsV48ab0b98fc7789304c21430978624f32
p2740
g3
(g4
(I0
tS'b'
tRp2741
(I1
(I3
tg7
I00
S'\x00\x00\x00@\x00\x00 ?\x00\x00 ?'
tbsV51bd5c556c77ecdaf489d8dd9f7a05f1
p2742
g3
(g4
(I0
tS'b'
tRp2743
(I1
(I3
tg7
I00
S'\x00f\xe6?\x00\x00$?\x00\x00$?'
tbsV8fe50e522e082c3752a0814da32f7e4c
p2744
g3
(g4
(I0
tS'b'
tRp2745
(I1
(I3
tg7
I00
S'\x00\x00 @\x00\x00\\?\x00\x00\\?'
tbsVde04fbf5e6c2389f0d039398bdcda971
p2746
g3
(g4
(I0
tS'b'
tRp2747
(I1
(I3
tg7
I00
S'\x00\x00\x00@\x00\x00T?\x00\x00T?'
tbsV98ea0b7d586e5e888e31633772f4df94
p2748
g3
(g4
(I0
tS'b'
tRp2749
(I1
(I3
tg7
I00
S'\x00\x00\x00@\x00\x00 ?\x00\x00 ?'
tbsV337e7a428e7342d1e7f53a04247f7ad8
p2750
g3
(g4
(I0
tS'b'
tRp2751
(I1
(I3
tg7
I00
S'\x00\x00\xa0?\x08\x00>?\x08\x00>?'
tbsV58bac12ccb44919bbd64271f38ee0584
p2752
g3
(g4
(I0
tS'b'
tRp2753
(I1
(I3
tg7
I00
S'\x00\x00\x80?\x06\x80"?\x06\x80"?'
tbsV59e4985cd165f3abbe888475ce564f3a
p2754
g3
(g4
(I0
tS'b'
tRp2755
(I1
(I3
tg7
I00
S'\x00\x00\x00@?5\x1e??5\x1e?'
tbsVd833b4c1530183c1b3eae02e9a2cd735
p2756
g3
(g4
(I0
tS'b'
tRp2757
(I1
(I3
tg7
I00
S'\x00\x00\x00@\xf8\xff)?\xf8\xff)?'
tbsVd2ec8f0fc56a9168cda0c707e49974ab
p2758
g3
(g4
(I0
tS'b'
tRp2759
(I1
(I3
tg7
I00
S'\x00\x00\xa0?\x02\x80\x03?\x02\x80\x03?'
tbsV0fe9dd36f4dece7f4ec017433c4d4a50
p2760
g3
(g4
(I0
tS'b'
tRp2761
(I1
(I3
tg7
I00
S'\x00\x00 @\x08\x00\x16?\x08\x00\x16?'
tbsV77d6f5203d46073369d7038b2d58e320
p2762
g3
(g4
(I0
tS'b'
tRp2763
(I1
(I3
tg7
I00
S'\x00\x00 @\xfc\xff\x10?\xfc\xff\x10?'
tbsV135f21a84ac903a1d8dfbb0dfe46d792
p2764
g3
(g4
(I0
tS'b'
tRp2765
(I1
(I3
tg7
I00
S'\x00\x00\xa0?\x00\x004?\x00\x004?'
tbsV5c0d992d01e6383d5684b8ac5d7143b1
p2766
g3
(g4
(I0
tS'b'
tRp2767
(I1
(I3
tg7
I00
S'\x00\x00 @\xfc\xff8?\xfc\xff8?'
tbsV676467220abd8e2104417c5213664ef9
p2768
g3
(g4
(I0
tS'b'
tRp2769
(I1
(I3
tg7
I00
S'\x00\x00 @\x06\x806?\x06\x806?'
tbsVa590753c175011e42bf17b90e3aec3b0
p2770
g3
(g4
(I0
tS'b'
tRp2771
(I1
(I3
tg7
I00
S'\x00\x00 @\xfc\xff\x10?\xfc\xff\x10?'
tbsVe60d99ea9648e1ce859eb0b386365e26
p2772
g3
(g4
(I0
tS'b'
tRp2773
(I1
(I3
tg7
I00
S'\x00\x00 @\xfc\xff0?\xfc\xff0?'
tbsVc65cc99faea7d0f79c175460c712f375
p2774
g3
(g4
(I0
tS'b'
tRp2775
(I1
(I3
tg7
I00
S'\x00\x00\x00@\x00\x00/?\x00\x00/?'
tbsVc2e546795f1ea2bd7f89ab3b4d13e761
p2776
g3
(g4
(I0
tS'b'
tRp2777
(I1
(I3
tg7
I00
S'\x00\x00\x00@\x04\x00\x1f?\x04\x00\x1f?'
tbsV87b81bd007c5b23cd0c0aeca722fe52f
p2778
g3
(g4
(I0
tS'b'
tRp2779
(I1
(I3
tg7
I00
S'\x00f\xe6?\x00\x00\x14?\x00\x00\x14?'
tbsV931253c408c440a8494dfaa74251efd3
p2780
g3
(g4
(I0
tS'b'
tRp2781
(I1
(I3
tg7
I00
S'\x00\x00\xa0?\xfe\x7f\x08?\xfe\x7f\x08?'
tbsVbeb2f21fa785f088469a4530784e9d81
p2782
g3
(g4
(I0
tS'b'
tRp2783
(I1
(I3
tg7
I00
S'\x00f\xe6?\x00\x00$?\x00\x00$?'
tbsV2dabff545dbfcb9e0efd92220c6aebcc
p2784
g3
(g4
(I0
tS'b'
tRp2785
(I1
(I3
tg7
I00
S'\x00\x00 @\xf8\xffA?\xf8\xffA?'
tbsVcaf38dcf62fe3a05fac40055920d7058
p2786
g3
(g4
(I0
tS'b'
tRp2787
(I1
(I3
tg7
I00
S'\x00f\xe6?\x00\x00\x1b?\x00\x00\x1b?'
tbsVc26fbd6a185271f820953be327b5307f
p2788
g3
(g4
(I0
tS'b'
tRp2789
(I1
(I3
tg7
I00
S'\x00\x00\xc0?\x00\x00>?\x00\x00>?'
tbsVeebd87b91489548bdfc1c76a20999a54
p2790
g3
(g4
(I0
tS'b'
tRp2791
(I1
(I3
tg7
I00
S'\x00g\xe6?\x00\x00$?\x00\x00$?'
tbsV8b494d14d835dd5ae13dab19b9520a55
p2792
g3
(g4
(I0
tS'b'
tRp2793
(I1
(I3
tg7
I00
S'\x00\x00 @\x06\x80\x16?\x06\x80\x16?'
tbsV2d8152c603e6c49593578bde8e388860
p2794
g3
(g4
(I0
tS'b'
tRp2795
(I1
(I3
tg7
I00
S'\x00\x00 @\x08\x00\x16?\x08\x00\x16?'
tbsV80600d4a5fee7424d689ba7d0906d50f
p2796
g3
(g4
(I0
tS'b'
tRp2797
(I1
(I3
tg7
I00
S'\x00\x00\x80?\x00\x00&?\x00\x00&?'
tbsV579dfed23d49414a2c080bbf9d7f958f
p2798
g3
(g4
(I0
tS'b'
tRp2799
(I1
(I3
tg7
I00
S'\x00\x00\x00@\x00\x00\x16?\x00\x00\x16?'
tbsV0d941a3ad6c889ac451caf89c46cb92a
p2800
g3
(g4
(I0
tS'b'
tRp2801
(I1
(I3
tg7
I00
S'\x00\x00\x00@\xfa\x7f\x01?\xfa\x7f\x01?'
tbsV29883252ce0ce3e052ce8cf4932623af
p2802
g3
(g4
(I0
tS'b'
tRp2803
(I1
(I3
tg7
I00
S'\x00\x00 @\xfc\xffL?\xfc\xffL?'
tbsV3f057e68a02e9951b268227649f4a7d6
p2804
g3
(g4
(I0
tS'b'
tRp2805
(I1
(I3
tg7
I00
S'\x00\x00 @\xfe\x7f(?\xfe\x7f(?'
tbsV19d95b5828aeba8073fcbb12979f312b
p2806
g3
(g4
(I0
tS'b'
tRp2807
(I1
(I3
tg7
I00
S'\x00\x00\xc0?\x00\x00.?\x00\x00.?'
tbsVf76143416ee2c8e1251f45f108fed468
p2808
g3
(g4
(I0
tS'b'
tRp2809
(I1
(I3
tg7
I00
S'\x00\x00\x00@\xbe\x9f\x1a?\xbe\x9f\x1a?'
tbsVb6578699374a9954b9a8a9e7da2603b1
p2810
g3
(g4
(I0
tS'b'
tRp2811
(I1
(I3
tg7
I00
S'\x00\x00\x00@\x04\x00#?\x04\x00#?'
tbsVb1091b5af8b47f24c4b94a9d27c813d1
p2812
g3
(g4
(I0
tS'b'
tRp2813
(I1
(I3
tg7
I00
S'\x00\x00\x00@\x00\x00I?\x00\x00I?'
tbsV9e249726076fa41af6766e12957a7e9d
p2814
g3
(g4
(I0
tS'b'
tRp2815
(I1
(I3
tg7
I00
S'\x00\x00\xa0?\x00\x004?\x00\x004?'
tbsV8f28d220d960b67f799479f319373c21
p2816
g3
(g4
(I0
tS'b'
tRp2817
(I1
(I3
tg7
I00
S'\x00\x00 @\xfe\x7f\x1c?\xfe\x7f\x1c?'
tbsVd1131708024b32032ade1ef48d115915
p2818
g3
(g4
(I0
tS'b'
tRp2819
(I1
(I3
tg7
I00
S'\x00\x00 @\x00\x00 ?\x00\x00 ?'
tbsVf17867cc3e579dc2fc6f0334bc43a91d
p2820
g3
(g4
(I0
tS'b'
tRp2821
(I1
(I3
tg7
I00
S'\x00f\xe6?\x00\x00(?\x00\x00(?'
tbsVcc4805e3ebe8621bc94a621b1714fc84
p2822
g3
(g4
(I0
tS'b'
tRp2823
(I1
(I3
tg7
I00
S'\x00\x00\x00@\x00\x00*?\x00\x00*?'
tbsV44012bec8f33a785f7844cea8910487d
p2824
g3
(g4
(I0
tS'b'
tRp2825
(I1
(I3
tg7
I00
S'\x00\x00\x00@\x00\x00\x11?\x00\x00\x11?'
tbsV9b259149a750af0c21640624e4be964a
p2826
g3
(g4
(I0
tS'b'
tRp2827
(I1
(I3
tg7
I00
S'\x00\x00 @\x06\x802?\x06\x802?'
tbsV0121c2845f2b7df060945b072b2515d7
p2828
g3
(g4
(I0
tS'b'
tRp2829
(I1
(I3
tg7
I00
S'\x00f\xe6?\x00\x00*?\x00\x00*?'
tbsVf243bd277f1876a77a0fb18f9092105a
p2830
g3
(g4
(I0
tS'b'
tRp2831
(I1
(I3
tg7
I00
S'\x00\x00\x00@\xf8\xff)?\xf8\xff)?'
tbsVfdf73dcce35167f3ed952a58f5a6f738
p2832
g3
(g4
(I0
tS'b'
tRp2833
(I1
(I3
tg7
I00
S'\x00\x00\x00@\xfc\xff,?\xfc\xff,?'
tbsV5518b27f000e34cf2db5a362f4fac613
p2834
g3
(g4
(I0
tS'b'
tRp2835
(I1
(I3
tg7
I00
S'\x00\x00\x00@sh\x11?sh\x11?'
tbsV191fa0e017185de2c802bbe94edad2ed
p2836
g3
(g4
(I0
tS'b'
tRp2837
(I1
(I3
tg7
I00
S'\x00\x00\xc0?\x00\x00>?\x00\x00>?'
tbsVcec6819833f63e96fc3e17e29c0124f8
p2838
g3
(g4
(I0
tS'b'
tRp2839
(I1
(I3
tg7
I00
S'\x00f\xe6?\x00\x00>?\x00\x00>?'
tbsVb42263b9b84f10464a94092e0cdc13b1
p2840
g3
(g4
(I0
tS'b'
tRp2841
(I1
(I3
tg7
I00
S'\x00\x00\xa0?\x08\x00>?\x08\x00>?'
tbsVd81704ee56c124cc1434640918a3299c
p2842
g3
(g4
(I0
tS'b'
tRp2843
(I1
(I3
tg7
I00
S'\x00\x00\x00@\x00\x000?\x00\x000?'
tbsV2615d445b6d3865407d1a4422d25058e
p2844
g3
(g4
(I0
tS'b'
tRp2845
(I1
(I3
tg7
I00
S'\x00f\xe6?\x00\x00+?\x00\x00+?'
tbsV8fde44df03fb80366c6604db53d3623f
p2846
g3
(g4
(I0
tS'b'
tRp2847
(I1
(I3
tg7
I00
S'\x00\x00 @\xf8\xffQ?\xf8\xffQ?'
tbsVac366a2168a4d04509693b7e5bcf3cce
p2848
g3
(g4
(I0
tS'b'
tRp2849
(I1
(I3
tg7
I00
S'\x00\x00 @\xfc\xff\x10?\xfc\xff\x10?'
tbsV013395589c01aa01f8df81d80fb0e2b8
p2850
g3
(g4
(I0
tS'b'
tRp2851
(I1
(I3
tg7
I00
S'\x00h\xa6?\x00\x80\t?\x00\x80\t?'
tbsV72609c2be68be9d7c9cde3d0127c05ac
p2852
g3
(g4
(I0
tS'b'
tRp2853
(I1
(I3
tg7
I00
S'\x00\x00\x00@\x00\x00&?\x00\x00&?'
tbsVfac65dbf7b6972049cfd37b5b122ec0b
p2854
g3
(g4
(I0
tS'b'
tRp2855
(I1
(I3
tg7
I00
S'\x00f\xe6?\x00\x00\x11?\x00\x00\x11?'
tbsVa2a4bc7708f6831470d757cd6f32bffe
p2856
g3
(g4
(I0
tS'b'
tRp2857
(I1
(I3
tg7
I00
S'\x00D\xe6?\xf8SC?\xf8SC?'
tbsVaaeb75b838690ba6ba425f73b9773479
p2858
g3
(g4
(I0
tS'b'
tRp2859
(I1
(I3
tg7
I00
S'\x00\x00 @\x00\x00H?\x00\x00H?'
tbsVeaeebb7a63edc8a329a7c5fbc583a507
p2860
g3
(g4
(I0
tS'b'
tRp2861
(I1
(I3
tg7
I00
S'\x00\x00\x00@\xf8\xff1?\xf8\xff1?'
tbsV85059119462b510aacb6da54983addcf
p2862
g3
(g4
(I0
tS'b'
tRp2863
(I1
(I3
tg7
I00
S'\x00f\xe6?\x00\x00*?\x00\x00*?'
tbsV7b72b604e0af8decb22021cdb92927ae
p2864
g3
(g4
(I0
tS'b'
tRp2865
(I1
(I3
tg7
I00
S'\x00f\xe6?\xff\xff\x10?\xff\xff\x10?'
tbsVc6ba816fd9c99c11ceb189ac24d2d2f6
p2866
g3
(g4
(I0
tS'b'
tRp2867
(I1
(I3
tg7
I00
S'\x00\x00 @\xfc\xff\x10?\xfc\xff\x10?'
tbsV991a2fe88aeb9ef23bb011e3843c9105
p2868
g3
(g4
(I0
tS'b'
tRp2869
(I1
(I3
tg7
I00
S'\x00f\xe6?\x00\x00*?\x00\x00*?'
tbsV9f52323d216f89d300612cfac0122d8b
p2870
g3
(g4
(I0
tS'b'
tRp2871
(I1
(I3
tg7
I00
S'\x00\x00\xa0?\x00\x00\\?\x00\x00\\?'
tbsV2a20e4a4e6411f72374fdffebabfc235
p2872
g3
(g4
(I0
tS'b'
tRp2873
(I1
(I3
tg7
I00
S'\x00g\xe6?\x00\x00\x1f?\x00\x00\x1f?'
tbsVc2b4ac9d22e601c5d546318874c76f59
p2874
g3
(g4
(I0
tS'b'
tRp2875
(I1
(I3
tg7
I00
S'\x00\x00\x00@\x00\x00/?\x00\x00/?'
tbsV666becc9794c25bb8e0e7982be7cb6dc
p2876
g3
(g4
(I0
tS'b'
tRp2877
(I1
(I3
tg7
I00
S'\x00\x00\xa0?\xfc\xff$?\xfc\xff$?'
tbsV0890a698c0a6ce5db48b1467011bf8d2
p2878
g3
(g4
(I0
tS'b'
tRp2879
(I1
(I3
tg7
I00
S'\x00\x00\x00@\x00\x00*?\x00\x00*?'
tbsVc7729e1c348f7d54d743388767c69cb4
p2880
g3
(g4
(I0
tS'b'
tRp2881
(I1
(I3
tg7
I00
S'\x00\x00\x00@\x04\x00\x13?\x04\x00\x13?'
tbsVcf3034c8828df3c2c23fa697ffde07fa
p2882
g3
(g4
(I0
tS'b'
tRp2883
(I1
(I3
tg7
I00
S'\x00\x00 @\x00\x00\x0c?\x00\x00\x0c?'
tbsV36dcb6b7463ada9ed78ce902d6f8ddc2
p2884
g3
(g4
(I0
tS'b'
tRp2885
(I1
(I3
tg7
I00
S'\x00\x00\xc0?\x00\x00/?\x00\x00/?'
tbsVa2c59fd551d9c658f8469726b66bee87
p2886
g3
(g4
(I0
tS'b'
tRp2887
(I1
(I3
tg7
I00
S'\x00\x00\x00@\x01\x00\x07?\x01\x00\x07?'
tbsV25782c40c29f7d774f8b644f3e68b590
p2888
g3
(g4
(I0
tS'b'
tRp2889
(I1
(I3
tg7
I00
S'\x00f\xe6?\x00\x00=?\x00\x00=?'
tbsVc68ec9a72b87f4bb7935534182145733
p2890
g3
(g4
(I0
tS'b'
tRp2891
(I1
(I3
tg7
I00
S'\x00\x00\x80?\x04\x00O?\x04\x00O?'
tbsV6d43fdb6eb1bec3a5f4febfd442e8c93
p2892
g3
(g4
(I0
tS'b'
tRp2893
(I1
(I3
tg7
I00
S'\x00\x00\x00@\x00\x806?\x00\x806?'
tbsV49ee28b71e02be4689e3fb0ba2a32c2b
p2894
g3
(g4
(I0
tS'b'
tRp2895
(I1
(I3
tg7
I00
S'\x00\x00\x00@{\x14.?{\x14.?'
tbsVe2ea2f046495909ff89e18e05f710fee
p2896
g3
(g4
(I0
tS'b'
tRp2897
(I1
(I3
tg7
I00
S'\x00\x00\xa0?\x04\x00\x1b?\x04\x00\x1b?'
tbsV2b0ea2696c8a02af5ac22f142be28e17
p2898
g3
(g4
(I0
tS'b'
tRp2899
(I1
(I3
tg7
I00
S'\x00\x00\x00@\xfe\x7f$?\xfe\x7f$?'
tbsV05a20caf6ab6df4643644c953f06a5eb
p2900
g3
(g4
(I0
tS'b'
tRp2901
(I1
(I3
tg7
I00
S'\x00\x00\xc0?\x00\x00\x1a?\x00\x00\x1a?'
tbsV2bb5f7e8f10e1e39b7f81b5aa98676ea
p2902
g3
(g4
(I0
tS'b'
tRp2903
(I1
(I3
tg7
I00
S'\x00\x00 @\x00\x00\x0c?\x00\x00\x0c?'
tbsV33dd6666d9f0338929ecce58bb7c4cc3
p2904
g3
(g4
(I0
tS'b'
tRp2905
(I1
(I3
tg7
I00
S'\x00\x00\x00@\x00\x00>?\x00\x00>?'
tbsV2a549c66f24af964de6f25165c55e331
p2906
g3
(g4
(I0
tS'b'
tRp2907
(I1
(I3
tg7
I00
S'\x00g\xe6?\x00\x009?\x00\x009?'
tbsVdc5cd907d9de1ed0609832f5bf1fc6e2
p2908
g3
(g4
(I0
tS'b'
tRp2909
(I1
(I3
tg7
I00
S'\x00\x00\x00@\x00\x00*?\x00\x00*?'
tbsVc98fb8f387c0979531e11de53607de92
p2910
g3
(g4
(I0
tS'b'
tRp2911
(I1
(I3
tg7
I00
S'\x00\x00 @\x08\x00\x16?\x08\x00\x16?'
tbsVd6fe4bdde1a2cc3dc4efe22becfe22fd
p2912
g3
(g4
(I0
tS'b'
tRp2913
(I1
(I3
tg7
I00
S'\x00\x00\xa0?\x04\x00/?\x04\x00/?'
tbsVf78944bd1732001a3c62723a8cc19856
p2914
g3
(g4
(I0
tS'b'
tRp2915
(I1
(I3
tg7
I00
S'\x00\x00\x00@\xfc\xff8?\xfc\xff8?'
tbsV88acee40bb9d8cb06898d1c5de01d3c8
p2916
g3
(g4
(I0
tS'b'
tRp2917
(I1
(I3
tg7
I00
S'\x00\x00\x00@\xf8\xff)?\xf8\xff)?'
tbsVea7373271a2441b5864df2053c0f5c3e
p2918
g3
(g4
(I0
tS'b'
tRp2919
(I1
(I3
tg7
I00
S'\x00\x00 @\x00\x004?\x00\x004?'
tbsVc87a713d17522698958de55c97654beb
p2920
g3
(g4
(I0
tS'b'
tRp2921
(I1
(I3
tg7
I00
S'\x00\x00\x80?\r\x00\xfd>\r\x00\xfd>'
tbsVb61b1911d3631bee521fcda3a3e568a1
p2922
g3
(g4
(I0
tS'b'
tRp2923
(I1
(I3
tg7
I00
S'\x00h\xe6?\x00\x807?\x00\x807?'
tbsV4b351d0c19be183cc880f5af3fe5abee
p2924
g3
(g4
(I0
tS'b'
tRp2925
(I1
(I3
tg7
I00
S'\x00g\xe6?\x00\x00"?\x00\x00"?'
tbsV2505ca2e3cd132f69fde96ba4bb50f7b
p2926
g3
(g4
(I0
tS'b'
tRp2927
(I1
(I3
tg7
I00
S'\x00\x00\x00@\x00\x00*?\x00\x00*?'
tbsVfda187bfb1d6a2ecd4abd862c7f7f94c
p2928
g3
(g4
(I0
tS'b'
tRp2929
(I1
(I3
tg7
I00
S'\x00\x00\x00@\xa8\xc6\x0b?\xa8\xc6\x0b?'
tbsVf2e952758095bc50691ab02f724568d2
p2930
g3
(g4
(I0
tS'b'
tRp2931
(I1
(I3
tg7
I00
S'\x00\x00 @\x04\x00C?\x04\x00C?'
tbsV7c2fd0d32df5a2780b4b10fdf2f2cdbe
p2932
g3
(g4
(I0
tS'b'
tRp2933
(I1
(I3
tg7
I00
S'\x80\x00\x00@\x04\x00\x1b?\x04\x00\x1b?'
tbsV9d453de54a141820fcf62bed9a53540d
p2934
g3
(g4
(I0
tS'b'
tRp2935
(I1
(I3
tg7
I00
S'\x00\x00\x00@\x00\x00/?\x00\x00/?'
tbsV566a5d958f17d2fc44d4a1ec00401034
p2936
g3
(g4
(I0
tS'b'
tRp2937
(I1
(I3
tg7
I00
S'\x00\x00\x00@\xff\xff\x10?\xff\xff\x10?'
tbsV36f4fca6bbd993088ee024f93a61b722
p2938
g3
(g4
(I0
tS'b'
tRp2939
(I1
(I3
tg7
I00
S'\x00\x00\xa0?\x02\x80\x1f?\x02\x80\x1f?'
tbsV02801e3bbcc6966cb115a962012c35df
p2940
g3
(g4
(I0
tS'b'
tRp2941
(I1
(I3
tg7
I00
S'\x00\xbc\xd9?\x17\xd9.?\x17\xd9.?'
tbsVeed4db0cb0576c274de569e98a56a270
p2942
g3
(g4
(I0
tS'b'
tRp2943
(I1
(I3
tg7
I00
S'\x00\x00\x00@\x00\x004?\x00\x004?'
tbsV2895ce2fe73dd62554326c3ab1c3b686
p2944
g3
(g4
(I0
tS'b'
tRp2945
(I1
(I3
tg7
I00
S'\x00\x00\x00@\x00\x004?\x00\x004?'
tbsV0c59313f52304e25d5a7dcf9877633b1
p2946
g3
(g4
(I0
tS'b'
tRp2947
(I1
(I3
tg7
I00
S'\x00\x00\xa0?\x04\x00C?\x04\x00C?'
tbsV3f37745d6516c29c597b797c50fe7839
p2948
g3
(g4
(I0
tS'b'
tRp2949
(I1
(I3
tg7
I00
S'\x00\x00\x00@\x00\x00 ?\x00\x00 ?'
tbsV0015ceb851d7251b8f399e39779d1e7d
p2950
g3
(g4
(I0
tS'b'
tRp2951
(I1
(I3
tg7
I00
S'\x00\x00\x00@\xfa\x7f1?\xfa\x7f1?'
tbsV713d8136c360ad0f37d6e53b61a7891b
p2952
g3
(g4
(I0
tS'b'
tRp2953
(I1
(I3
tg7
I00
S'\x00f\xe6?\x00\x00\x16?\x00\x00\x16?'
tbsVf6a2e171a3be579b564cd855985ab9d1
p2954
g3
(g4
(I0
tS'b'
tRp2955
(I1
(I3
tg7
I00
S'\x00\x00 @\x00\x00 ?\x00\x00 ?'
tbsV7692b05abf70dbac5292e91918e98913
p2956
g3
(g4
(I0
tS'b'
tRp2957
(I1
(I3
tg7
I00
S'\x00\x00\x00@\x00\x00*?\x00\x00*?'
tbsV9626af3a0a37c4fa5187447f01aa69da
p2958
g3
(g4
(I0
tS'b'
tRp2959
(I1
(I3
tg7
I00
S'\x00\x00\x00@\x00\x00/?\x00\x00/?'
tbsVf2ca85bb9ae82a3d79b9f321f727ac19
p2960
g3
(g4
(I0
tS'b'
tRp2961
(I1
(I3
tg7
I00
S'\x00f\xe6?\x00\x004?\x00\x004?'
tbsVe5cf847e616cc2fe94816ffa547d2614
p2962
g3
(g4
(I0
tS'b'
tRp2963
(I1
(I3
tg7
I00
S'\x00\x00\x00@\x04\x00/?\x04\x00/?'
tbsV4419818b57ef8b0f8d6d95594adab922
p2964
g3
(g4
(I0
tS'b'
tRp2965
(I1
(I3
tg7
I00
S'\x00\x00\x00@\x00\x00\x0c?\x00\x00\x0c?'
tbsV9b7524785a9bf40f0651deeb3b05b75f
p2966
g3
(g4
(I0
tS'b'
tRp2967
(I1
(I3
tg7
I00
S'\x00\x00\x00@\x00\x000?\x00\x000?'
tbsV7ec258e536a1e0353375295ad1b71e5b
p2968
g3
(g4
(I0
tS'b'
tRp2969
(I1
(I3
tg7
I00
S'\x00\x00\xa0?\x00\x004?\x00\x004?'
tbsV55e476ee19742fc09c4ce5e6ebdc13d1
p2970
g3
(g4
(I0
tS'b'
tRp2971
(I1
(I3
tg7
I00
S'\x00\x00 @\x02\x80;?\x02\x80;?'
tbsV430596d1bfa6ec9a7bfa7359194a561c
p2972
g3
(g4
(I0
tS'b'
tRp2973
(I1
(I3
tg7
I00
S'\x00\x00\x00@\x00\x000?\x00\x000?'
tbsV5bf71718aa1bdcada76f0683f8d6b41b
p2974
g3
(g4
(I0
tS'b'
tRp2975
(I1
(I3
tg7
I00
S'\x00\x00 @\xf8\xff)?\xf8\xff)?'
tbsV968808e60982c76366088b4db7254671
p2976
g3
(g4
(I0
tS'b'
tRp2977
(I1
(I3
tg7
I00
S'\x00\x00\x00@\xf8\xff)?\xf8\xff)?'
tbsV0708c00f6117ed977bbe1b462b56848c
p2978
g3
(g4
(I0
tS'b'
tRp2979
(I1
(I3
tg7
I00
S'\x00\x00\x00@\xecQ\x18?\xecQ\x18?'
tbsVf0459473753b99105e9723f122022ad0
p2980
g3
(g4
(I0
tS'b'
tRp2981
(I1
(I3
tg7
I00
S'\x00g\xe6?\x00\x00\x0c?\x00\x00\x0c?'
tbsVf42a0343e5b5154c6a184fc955d8f20f
p2982
g3
(g4
(I0
tS'b'
tRp2983
(I1
(I3
tg7
I00
S'\x00\x00\x00@\x89A@?\x89A@?'
tbsV8ad1af382994ce945a5034fab202d402
p2984
g3
(g4
(I0
tS'b'
tRp2985
(I1
(I3
tg7
I00
S'\x00\x00\x00@\xfc\xff8?\xfc\xff8?'
tbsV6fd3af9174242c1b393fe4ba515e7a26
p2986
g3
(g4
(I0
tS'b'
tRp2987
(I1
(I3
tg7
I00
S'\x00\x00 @\x00\x00 ?\x00\x00 ?'
tbsVb0864a9fd01ec7c7fa3a8301bdb2d03d
p2988
g3
(g4
(I0
tS'b'
tRp2989
(I1
(I3
tg7
I00
S'\x00\x00\x00@-\xb2\x1d?-\xb2\x1d?'
tbsV1be4cf2de84adac4de0e090c9a15461c
p2990
g3
(g4
(I0
tS'b'
tRp2991
(I1
(I3
tg7
I00
S'\x80\xff\xff?\xfc\xff$?\xfc\xff$?'
tbsVa187b24f9827de759fb86a84e9b2e544
p2992
g3
(g4
(I0
tS'b'
tRp2993
(I1
(I3
tg7
I00
S'\x00\x00 @\x00\x00D?\x00\x00D?'
tbsVbcc701884a32d8883b73b5844241a354
p2994
g3
(g4
(I0
tS'b'
tRp2995
(I1
(I3
tg7
I00
S'\x00\x00\x80?\x08\x00>?\x08\x00>?'
tbsV3d2b2b0fa9697b298fbbc033481cdcc4
p2996
g3
(g4
(I0
tS'b'
tRp2997
(I1
(I3
tg7
I00
S'\x00\x00\xc0?\x00\x00T?\x00\x00T?'
tbsV5e371e8fda27df3e5cc2548868229d5b
p2998
g3
(g4
(I0
tS'b'
tRp2999
(I1
(I3
tg7
I00
S'\x80f\xe6?\x00\x00%?\x00\x00%?'
tbsVdbfbc12c7a943a2dc0e34bfd4a636bca
p3000
g3
(g4
(I0
tS'b'
tRp3001
(I1
(I3
tg7
I00
S'\x00\x00\xa0?\x00\x00 ?\x00\x00 ?'
tbsV328138837e6db638913332acb79c703e
p3002
g3
(g4
(I0
tS'b'
tRp3003
(I1
(I3
tg7
I00
S'\x00\x00\xa0?\xfc\xff$?\xfc\xff$?'
tbsV3c5a0fc6890a1f84211cf8a75c1b83c4
p3004
g3
(g4
(I0
tS'b'
tRp3005
(I1
(I3
tg7
I00
S'\x00\x00\x00@\x04\x00\x07?\x04\x00\x07?'
tbsV3187b6cf14ed2cbe611b01da5e161f21
p3006
g3
(g4
(I0
tS'b'
tRp3007
(I1
(I3
tg7
I00
S'\x00\x00\x80?\x00\x00H?\x00\x00H?'
tbsV494c42cb61c1e4a02504c16fe09a8129
p3008
g3
(g4
(I0
tS'b'
tRp3009
(I1
(I3
tg7
I00
S'\x00h\xa6?\x00\x80/?\x00\x80/?'
tbsV87cdf4626079509e5d6d3c3b6c8bfc2e
p3010
g3
(g4
(I0
tS'b'
tRp3011
(I1
(I3
tg7
I00
S'\x00\x00\x00@\x00\x00*?\x00\x00*?'
tbsV74b1b748971c474a8023f6406c54b18a
p3012
g3
(g4
(I0
tS'b'
tRp3013
(I1
(I3
tg7
I00
S'\x00\x00\x00@\xf8\xffI?\xf8\xffI?'
tbsV6faabf4152bf0ebfd91f686bc37a1f16
p3014
g3
(g4
(I0
tS'b'
tRp3015
(I1
(I3
tg7
I00
S'\x00\x00 @\xfc\xff\x10?\xfc\xff\x10?'
tbsV54d421d543e9e6dc8db10066a5867081
p3016
g3
(g4
(I0
tS'b'
tRp3017
(I1
(I3
tg7
I00
S'\x00\x00\x00@\x00\x00\x16?\x00\x00\x16?'
tbsV493641ef65ee95fe994d4789aec1db3b
p3018
g3
(g4
(I0
tS'b'
tRp3019
(I1
(I3
tg7
I00
S'\x00\x00\x00@\xf8\xff)?\xf8\xff)?'
tbsV5c4c25f93529bf21469f81a0acd5d324
p3020
g3
(g4
(I0
tS'b'
tRp3021
(I1
(I3
tg7
I00
S'\x00\x00 @\x08\x00>?\x08\x00>?'
tbsVe0aa61b44c33e6a75940a8541c6894c9
p3022
g3
(g4
(I0
tS'b'
tRp3023
(I1
(I3
tg7
I00
S'\x00\x00\x00@\x00\x00.?\x00\x00.?'
tbsV88ae66cd575c45ec5bb0f1578e2f1c49
p3024
g3
(g4
(I0
tS'b'
tRp3025
(I1
(I3
tg7
I00
S'\x00g\xe6?\x00\x00\x1b?\x00\x00\x1b?'
tbsV67f7f74220c08faa756b34cb81b203a5
p3026
g3
(g4
(I0
tS'b'
tRp3027
(I1
(I3
tg7
I00
S'\x00\x00\x00@\xfc\xff\x10?\xfc\xff\x10?'
tbsVe58cc57cab8a1738041b72b156fedc56
p3028
g3
(g4
(I0
tS'b'
tRp3029
(I1
(I3
tg7
I00
S'\x00\x00 @\xf8\xff)?\xf8\xff)?'
tbsV6a08bc7a3156caf9b07bbb1f9b2861d2
p3030
g3
(g4
(I0
tS'b'
tRp3031
(I1
(I3
tg7
I00
S'\x00\x00\x80?\x00\x001?\x00\x001?'
tbsV5818c3be99a83ca8c951ff3434750d6a
p3032
g3
(g4
(I0
tS'b'
tRp3033
(I1
(I3
tg7
I00
S'\x00\x00\xa0?\xfc\xff8?\xfc\xff8?'
tbsV0ff552aa083ecfabaf1cfd65b0a8e674
p3034
g3
(g4
(I0
tS'b'
tRp3035
(I1
(I3
tg7
I00
S'\x00\x00 @\xf8\xff)?\xf8\xff)?'
tbsV79eb6f0a80841d6618968362dfb1f57f
p3036
g3
(g4
(I0
tS'b'
tRp3037
(I1
(I3
tg7
I00
S'\x00\x00\x00@\x00\x00 ?\x00\x00 ?'
tbsV49c88f7cc77341c9ae4e64243f9912fc
p3038
g3
(g4
(I0
tS'b'
tRp3039
(I1
(I3
tg7
I00
S'\x00\x00\xa0?\x00\x00(?\x00\x00(?'
tbsVff8599dd7c1139be3bad5a0351ab749a
p3040
g3
(g4
(I0
tS'b'
tRp3041
(I1
(I3
tg7
I00
S'\x00\x00 ?\x00\x00/?\x00\x00/?'
tbsV0bd0e3056cbf23a1cb7f0f0b18446068
p3042
g3
(g4
(I0
tS'b'
tRp3043
(I1
(I3
tg7
I00
S'\x00\x00\xa0?\xf8\xff)?\xf8\xff)?'
tbsVedad1a7e85b5443e0ae9e654d2adbcba
p3044
g3
(g4
(I0
tS'b'
tRp3045
(I1
(I3
tg7
I00
S'\x00\x00\xa0?\xfc\xff\x10?\xfc\xff\x10?'
tbsVe858263b89f0bb57597bcff325eaeecf
p3046
g3
(g4
(I0
tS'b'
tRp3047
(I1
(I3
tg7
I00
S'\x00\x00\x00@\x00\x00R?\x00\x00R?'
tbsVe4421d2d5318845c1cccbc6fa308a96e
p3048
g3
(g4
(I0
tS'b'
tRp3049
(I1
(I3
tg7
I00
S'\x00\x00 @\x04\x00\x1b?\x04\x00\x1b?'
tbsV43933b4021d93dd64854f318656c7d1e
p3050
g3
(g4
(I0
tS'b'
tRp3051
(I1
(I3
tg7
I00
S'\x00\x00\x00@\x00\x00\x1d?\x00\x00\x1d?'
tbsVe3a9a6f8d21c6c459728066bcf18c615
p3052
g3
(g4
(I0
tS'b'
tRp3053
(I1
(I3
tg7
I00
S'\x00\x00\x00@\x00\x80\x0e?\x00\x80\x0e?'
tbsV263fa87394ee296e31234364e75d05e2
p3054
g3
(g4
(I0
tS'b'
tRp3055
(I1
(I3
tg7
I00
S'\x00\x00 @\x08\x00\x16?\x08\x00\x16?'
tbsVa7eca254c634f5f6e3cd0e508b069f1c
p3056
g3
(g4
(I0
tS'b'
tRp3057
(I1
(I3
tg7
I00
S'\x00\x00\x00@\x00\x00:?\x00\x00:?'
tbsV322bf0acacba9650fa5656b9613c75c8
p3058
g3
(g4
(I0
tS'b'
tRp3059
(I1
(I3
tg7
I00
S'\x00\x00 ?\x00\x00:?\x00\x00:?'
tbsVc14816a1a9a6852c6b0d88fe5585c8bb
p3060
g3
(g4
(I0
tS'b'
tRp3061
(I1
(I3
tg7
I00
S'\x00\x00\x00@\x01\x00#?\x01\x00#?'
tbsV42dbd247a9e5f710926b7c049a00ff48
p3062
g3
(g4
(I0
tS'b'
tRp3063
(I1
(I3
tg7
I00
S'\x00\x00 @\xfc\xff$?\xfc\xff$?'
tbsVaa198aacdec142168b8de04c4444054e
p3064
g3
(g4
(I0
tS'b'
tRp3065
(I1
(I3
tg7
I00
S'\x00\x00\x00@\x00\x009?\x00\x009?'
tbsV9e922147900b3984c9345bdda573e882
p3066
g3
(g4
(I0
tS'b'
tRp3067
(I1
(I3
tg7
I00
S'\x00\x00 @\x00\x004?\x00\x004?'
tbsVeba4bfb93928d424ff21b5be96b5c09b
p3068
g3
(g4
(I0
tS'b'
tRp3069
(I1
(I3
tg7
I00
S'\x00\x00 @\xfe\x7f(?\xfe\x7f(?'
tbsV5267ea7baf6332f29163064aecf6e443
p3070
g3
(g4
(I0
tS'b'
tRp3071
(I1
(I3
tg7
I00
S'\x00\x00 @\xfc\xff8?\xfc\xff8?'
tbsV198d3ff4979a9a89f78ac4b4a0fe0638
p3072
g3
(g4
(I0
tS'b'
tRp3073
(I1
(I3
tg7
I00
S'\x00x\xd9?V\x0eM?V\x0eM?'
tbsVb4d7268f5a8436da6634e585db3e9478
p3074
g3
(g4
(I0
tS'b'
tRp3075
(I1
(I3
tg7
I00
S'\x00\x00 @\x00\x004?\x00\x004?'
tbsV51fbac477a3639f983904fc4d42b8c15
p3076
g3
(g4
(I0
tS'b'
tRp3077
(I1
(I3
tg7
I00
S'\x00\x00 ?\xfa\x7f!?\xfa\x7f!?'
tbsV4348beb99dacd2cbf14983a2c64a00c6
p3078
g3
(g4
(I0
tS'b'
tRp3079
(I1
(I3
tg7
I00
S'\x00\x00\xc0?\x00\x00(?\x00\x00(?'
tbsV2ebb1e8f14802c33f0e4215a7545d70d
p3080
g3
(g4
(I0
tS'b'
tRp3081
(I1
(I3
tg7
I00
S'\x00g\xe6?\x01\x00\x1b?\x01\x00\x1b?'
tbsV1344e604281e68ac71f25c02e7637992
p3082
g3
(g4
(I0
tS'b'
tRp3083
(I1
(I3
tg7
I00
S'\x00\x00\x80?\x00\x00H?\x00\x00H?'
tbsV79e0e507b1cd1d0c8107de4fd6b9e444
p3084
g3
(g4
(I0
tS'b'
tRp3085
(I1
(I3
tg7
I00
S'\x00\x00 @\x04\x00/?\x04\x00/?'
tbsV26a2b8d6b94ee16ecf88fb28c57f377e
p3086
g3
(g4
(I0
tS'b'
tRp3087
(I1
(I3
tg7
I00
S'\x00\x00\x00@\x02\x80\x13?\x02\x80\x13?'
tbsVe42815372aa308f5943847ad06f529de
p3088
g3
(g4
(I0
tS'b'
tRp3089
(I1
(I3
tg7
I00
S'\x00g\xe6?\x00\x004?\x00\x004?'
tbsV7239b3a904f39b25c4e303c10a24621a
p3090
g3
(g4
(I0
tS'b'
tRp3091
(I1
(I3
tg7
I00
S'\x00\x00 @\x00\x004?\x00\x004?'
tbsV4b6b53281fe1fe797e181a5287df0f9a
p3092
g3
(g4
(I0
tS'b'
tRp3093
(I1
(I3
tg7
I00
S'\x00\x00\xa0?\x00\x00H?\x00\x00H?'
tbsV310b403db75226a9a44d9a29c18917b7
p3094
g3
(g4
(I0
tS'b'
tRp3095
(I1
(I3
tg7
I00
S'\x00\x00 @\x08\x00\x16?\x08\x00\x16?'
tbsV57822feb6186b788c4e1877123428454
p3096
g3
(g4
(I0
tS'b'
tRp3097
(I1
(I3
tg7
I00
S'\x00\x00 @\x00\x00 ?\x00\x00 ?'
tbsV661ffa992ed2c23c37f1e7b82dc834d7
p3098
g3
(g4
(I0
tS'b'
tRp3099
(I1
(I3
tg7
I00
S'\x00D\xe6?\x17\xd9.?\x17\xd9.?'
tbsVb17c07114dcf49ce71c8da4b43cf1192
p3100
g3
(g4
(I0
tS'b'
tRp3101
(I1
(I3
tg7
I00
S'\x00\x00\x00@\x00\x00*?\x00\x00*?'
tbsV122c5c959fd98036c9972eec2062dc59
p3102
g3
(g4
(I0
tS'b'
tRp3103
(I1
(I3
tg7
I00
S'\x00\x00\xa0?\x00\x004?\x00\x004?'
tbsVf6c9e875d7adfe7add08f43528810f72
p3104
g3
(g4
(I0
tS'b'
tRp3105
(I1
(I3
tg7
I00
S'\x00\x00\xa0?\xfe\x7f\x18?\xfe\x7f\x18?'
tbsV0334c8242ce7ee1a6c1263096e4cc535
p3106
g3
(g4
(I0
tS'b'
tRp3107
(I1
(I3
tg7
I00
S'\x00\x00 @\xfc\xff$?\xfc\xff$?'
tbsV975c90ab2afd216efbb6b772a22ba3d9
p3108
g3
(g4
(I0
tS'b'
tRp3109
(I1
(I3
tg7
I00
S'\x00\x00 @\x02\x807?\x02\x807?'
tbsVd7e5640b52c8e092ec277febc81478da
p3110
g3
(g4
(I0
tS'b'
tRp3111
(I1
(I3
tg7
I00
S'\x00\x00\x00@J\x0c"?J\x0c"?'
tbsVde881c07adc8d53e52391fac066ccb9f
p3112
g3
(g4
(I0
tS'b'
tRp3113
(I1
(I3
tg7
I00
S'\x00\x00 @\x00\x004?\x00\x004?'
tbsVae4e9d8aab8f8f5ae975bcca923f468d
p3114
g3
(g4
(I0
tS'b'
tRp3115
(I1
(I3
tg7
I00
S'\x00\x989?\x00\x004?\x00\x004?'
tbsV11fe5426ef497bc490b9f1465f1fb25e
p3116
g3
(g4
(I0
tS'b'
tRp3117
(I1
(I3
tg7
I00
S'\x00\x00\x00@\x00\x00\x0c?\x00\x00\x0c?'
tbsV8c9925cf3627cd4742bbc8677f905afc
p3118
g3
(g4
(I0
tS'b'
tRp3119
(I1
(I3
tg7
I00
S'\x00\x00\x00@\x00\x00 ?\x00\x00 ?'
tbsV1278988821a696e534c6c93ecdd4ff0c
p3120
g3
(g4
(I0
tS'b'
tRp3121
(I1
(I3
tg7
I00
S'\x00f\xe6?\x00\x00\x04?\x00\x00\x04?'
tbsV07fdb853ff90ce3c6d5c91f619ed714e
p3122
g3
(g4
(I0
tS'b'
tRp3123
(I1
(I3
tg7
I00
S'\x00\x00\x00@P\x8d7?P\x8d7?'
tbsVbedec8e1ad130a08faeec8ed81780d56
p3124
g3
(g4
(I0
tS'b'
tRp3125
(I1
(I3
tg7
I00
S'\x00\x88\xe6?\xf8SC?\xf8SC?'
tbsV124e68a78f9c092a2f16f9214e91268f
p3126
g3
(g4
(I0
tS'b'
tRp3127
(I1
(I3
tg7
I00
S'\x00\x00\x00@\x00\x00\x0f?\x00\x00\x0f?'
tbsVe42065c1145ccf734312cb9edbe5234b
p3128
g3
(g4
(I0
tS'b'
tRp3129
(I1
(I3
tg7
I00
S'\x00\x00\x00@\x02\x80O?\x02\x80O?'
tbsV322d09835e9c6f621262ee68fd3ed596
p3130
g3
(g4
(I0
tS'b'
tRp3131
(I1
(I3
tg7
I00
S'\x00\x00\xa0?\xf8\xff\t?\xf8\xff\t?'
tbsVaf4dfdda000c16c4cb77ea236cf1e524
p3132
g3
(g4
(I0
tS'b'
tRp3133
(I1
(I3
tg7
I00
S'\x00\x00 @\xfc\xff\x1c?\xfc\xff\x1c?'
tbsV1427be78bcf4aba96c5054b697be9b5b
p3134
g3
(g4
(I0
tS'b'
tRp3135
(I1
(I3
tg7
I00
S'\x00g\xe6?\x00\x00*?\x00\x00*?'
tbsVe6f4757b8f315f31559c5c256cb8dead
p3136
g3
(g4
(I0
tS'b'
tRp3137
(I1
(I3
tg7
I00
S'\x00\x00\x00@\x00\x004?\x00\x004?'
tbsV0a38e7597ca26f9374f8ea2770ba870d
p3138
g3
(g4
(I0
tS'b'
tRp3139
(I1
(I3
tg7
I00
S'\x00\x00 @\x00\x00 ?\x00\x00 ?'
tbsV32cda856b7ec759fd3ebaa363c505e88
p3140
g3
(g4
(I0
tS'b'
tRp3141
(I1
(I3
tg7
I00
S'\x00\x00\x00@\x00\x00\n?\x00\x00\n?'
tbsV7525f0ec0999007a0bac946e346eba39
p3142
g3
(g4
(I0
tS'b'
tRp3143
(I1
(I3
tg7
I00
S'\x00\x00 @\x04\x003?\x04\x003?'
tbsVd09e4124b97b22ef45692b62b4ca7f03
p3144
g3
(g4
(I0
tS'b'
tRp3145
(I1
(I3
tg7
I00
S'\x00\x00 @\xfc\xff$?\xfc\xff$?'
tbsVc278a6dc82c323254ff53c58db759908
p3146
g3
(g4
(I0
tS'b'
tRp3147
(I1
(I3
tg7
I00
S'\x00\x00\x00@\xfc\xff8?\xfc\xff8?'
tbsV616f98dab4db03edbad28c73d22468d2
p3148
g3
(g4
(I0
tS'b'
tRp3149
(I1
(I3
tg7
I00
S'\x00\x00 @\x00\x004?\x00\x004?'
tbsVdcf5fd36b9fff9183f63df286bf8eef9
p3150
g3
(g4
(I0
tS'b'
tRp3151
(I1
(I3
tg7
I00
S'\x00d\xe6?\x00\x004?\x00\x004?'
tbsV42b2161e43b4dd0ea94604485976c59c
p3152
g3
(g4
(I0
tS'b'
tRp3153
(I1
(I3
tg7
I00
S'\x00\x00\xa0?\x04\x00??\x04\x00??'
tbsVbba773fb9c1c517e23efe05e283b58a2
p3154
g3
(g4
(I0
tS'b'
tRp3155
(I1
(I3
tg7
I00
S'\x00g\xe6?\x00\x00H?\x00\x00H?'
tbsVb6d8dd834f2ff1ed7a5154e658460699
p3156
g3
(g4
(I0
tS'b'
tRp3157
(I1
(I3
tg7
I00
S'\x00\x00\x00@\x00\x00%?\x00\x00%?'
tbsV8815efa67adb15b2f8cfd49ec992f48e
p3158
g3
(g4
(I0
tS'b'
tRp3159
(I1
(I3
tg7
I00
S'\x00\x00@?\x00\x00G?\x00\x00G?'
tbsV5ae9ab473d59cd29262c47a741177b6e
p3160
g3
(g4
(I0
tS'b'
tRp3161
(I1
(I3
tg7
I00
S'\x00\x00\x00@\x00\x80!?\x00\x80!?'
tbsVfb7ae70f05b6441ac4ea7187ce7c45f7
p3162
g3
(g4
(I0
tS'b'
tRp3163
(I1
(I3
tg7
I00
S'\x00\x00\x00@\x00\x00C?\x00\x00C?'
tbsV7a82802a862a267d58aa2171645f1181
p3164
g3
(g4
(I0
tS'b'
tRp3165
(I1
(I3
tg7
I00
S'\x00\x00\xc0?\x00\x005?\x00\x005?'
tbsV6828335aec9aa0d0053ec0949319aa4b
p3166
g3
(g4
(I0
tS'b'
tRp3167
(I1
(I3
tg7
I00
S'\x00\x00 @\xfc\xff\x10?\xfc\xff\x10?'
tbsV1ff6e2a80eb74396e09460c61ae69fb0
p3168
g3
(g4
(I0
tS'b'
tRp3169
(I1
(I3
tg7
I00
S'\x00\x00\x00@ff&?ff&?'
tbsVcaddd8f856b110ed9bb52872e003193f
p3170
g3
(g4
(I0
tS'b'
tRp3171
(I1
(I3
tg7
I00
S'\x00\x00\x00@\x00\x00\x0c?\x00\x00\x0c?'
tbsV7bd3565827be855caf938e72b3a7880a
p3172
g3
(g4
(I0
tS'b'
tRp3173
(I1
(I3
tg7
I00
S'\x00\x00\xa0?\x00\x004?\x00\x004?'
tbsVb921bb8f821ccab27ab69ea94b8149a7
p3174
g3
(g4
(I0
tS'b'
tRp3175
(I1
(I3
tg7
I00
S'\x00\x00 @\xfc\xff\x10?\xfc\xff\x10?'
tbsV0fe244f21893c45fbb877f54d008518b
p3176
g3
(g4
(I0
tS'b'
tRp3177
(I1
(I3
tg7
I00
S'\x00\x00\x00@\x04\x00\x1f?\x04\x00\x1f?'
tbsV59fc9d939f05bf3023c1387c1c086520
p3178
g3
(g4
(I0
tS'b'
tRp3179
(I1
(I3
tg7
I00
S'\x00\x00 @\xf8\xff)?\xf8\xff)?'
tbsV81528d5c9ea936264bf9aa8ab4f0ea5d
p3180
g3
(g4
(I0
tS'b'
tRp3181
(I1
(I3
tg7
I00
S'\x00\x00 @\x04\x00\x1b?\x04\x00\x1b?'
tbsV4efa432089851f50a5f53fc5a12e806a
p3182
g3
(g4
(I0
tS'b'
tRp3183
(I1
(I3
tg7
I00
S'\x00\x00\x00@\xfc\xff8?\xfc\xff8?'
tbsV85d6fb4a08853d370935a75de7495a27
p3184
g3
(g4
(I0
tS'b'
tRp3185
(I1
(I3
tg7
I00
S'\x00x\xd9?fff?fff?'
tbsV839502f9ff68fd778b435255690f3061
p3186
g3
(g4
(I0
tS'b'
tRp3187
(I1
(I3
tg7
I00
S'\x00\x00\x00@\xfa\x7f-?\xfa\x7f-?'
tbsV60b1526597b82c98ce96fbe5014c0f2b
p3188
g3
(g4
(I0
tS'b'
tRp3189
(I1
(I3
tg7
I00
S'\x00\x00\x00@\x08\x00\x16?\x08\x00\x16?'
tbsVe7adb2e4409683b9490e34b6b3604d9e
p3190
g3
(g4
(I0
tS'b'
tRp3191
(I1
(I3
tg7
I00
S'\x00f\xe6?\x01\x00/?\x01\x00/?'
tbsV487cc9003c99fa95e9a9e201d396992c
p3192
g3
(g4
(I0
tS'b'
tRp3193
(I1
(I3
tg7
I00
S'\x00\x00\x00@\x00\x00@?\x00\x00@?'
tbsV49433c1588cc078b825a0eff1dc2e816
p3194
g3
(g4
(I0
tS'b'
tRp3195
(I1
(I3
tg7
I00
S'@\x00 @\x08\x00\x16?\x08\x00\x16?'
tbs.